(lp0
(S'cppflags'
p1
ccopy_reg
_reconstructor
p2
(cino.utils
SpaceList
p3
c__builtin__
list
p4
(lp5
S'-mmcu=atmega328p'
p6
aS'-DF_CPU=16000000L'
p7
aS'-DARDUINO=101'
p8
aS'-I/usr/share/arduino/hardware/arduino/cores/arduino'
p9
aS'-ffunction-sections'
p10
aS'-fdata-sections'
p11
aS'-g'
p12
aS'-Os'
p13
aS'-w'
p14
aS'-I/usr/share/arduino/hardware/arduino/variants/standard'
p15
aS'-I/usr/share/arduino/libraries/Servo'
p16
aS'-I/usr/share/arduino/libraries/DHT'
p17
aS'-I/usr/share/arduino/hardware/arduino/cores/arduino'
p18
atp19
Rp20
tp21
a(S'cxx'
p22
S'/usr/bin/avr-g++'
p23
tp24
a(S'arduino_libraries_dir'
p25
S'/usr/share/arduino/libraries'
p26
tp27
a(S'avrdude'
p28
S'/usr/share/arduino/hardware/tools/avrdude'
p29
tp30
a(S'ar'
p31
S'/usr/bin/avr-ar'
p32
tp33
a(S'names'
p34
(dp35
S'cpp'
p36
S'%s.cpp'
p37
sS'obj'
p38
S'%s.o'
p39
sS'lib'
p40
S'lib%s.a'
p41
sS'deps'
p42
S'%s.d'
p43
stp44
a(S'ldflags'
p45
g2
(g3
g4
(lp46
g6
aS'-Wl,-Os'
p47
aS'-Wl,--gc-sections'
p48
atp49
Rp50
tp51
a(S'arduino_lib_version'
p52
g2
(cino.environment
Version
p53
c__builtin__
tuple
p54
(I1
I0
I1
tp55
tp56
Rp57
tp58
a(S'objcopy'
p59
S'/usr/bin/avr-objcopy'
p60
tp61
a(S'board_models'
p62
cino.environment
BoardModels
p63
((lp64
(lp65
S'uno'
p66
a(dp67
S'build'
p68
(dp69
S'core'
p70
S'arduino'
p71
sS'mcu'
p72
S'atmega328p'
p73
sS'f_cpu'
p74
S'16000000L'
p75
sS'variant'
p76
S'standard'
p77
ssS'bootloader'
p78
(dp79
S'extended_fuses'
p80
S'0x05'
p81
sS'high_fuses'
p82
S'0xde'
p83
sS'low_fuses'
p84
S'0xff'
p85
sS'lock_bits'
p86
S'0x0F'
p87
sS'file'
p88
S'optiboot_atmega328.hex'
p89
sS'path'
p90
S'optiboot'
p91
sS'unlock_bits'
p92
S'0x3F'
p93
ssS'upload'
p94
(dp95
S'protocol'
p96
S'arduino'
p97
sS'maximum_size'
p98
S'32256'
p99
sS'speed'
p100
S'115200'
p101
ssS'name'
p102
S'Arduino Uno'
p103
saa(lp104
S'atmega328'
p105
a(dp106
S'build'
p107
(dp108
S'core'
p109
S'arduino'
p110
sS'mcu'
p111
S'atmega328p'
p112
sS'f_cpu'
p113
S'16000000L'
p114
sS'variant'
p115
S'standard'
p116
ssS'bootloader'
p117
(dp118
S'extended_fuses'
p119
S'0x05'
p120
sS'high_fuses'
p121
S'0xDA'
p122
sS'low_fuses'
p123
S'0xFF'
p124
sS'lock_bits'
p125
S'0x0F'
p126
sS'file'
p127
S'ATmegaBOOT_168_atmega328.hex'
p128
sS'path'
p129
S'atmega'
p130
sS'unlock_bits'
p131
S'0x3F'
p132
ssS'upload'
p133
(dp134
S'protocol'
p135
S'arduino'
p136
sS'maximum_size'
p137
S'30720'
p138
sS'speed'
p139
S'57600'
p140
ssS'name'
p141
S'Arduino Duemilanove w/ ATmega328'
p142
saa(lp143
S'diecimila'
p144
a(dp145
S'build'
p146
(dp147
S'core'
p148
S'arduino'
p149
sS'mcu'
p150
S'atmega168'
p151
sS'f_cpu'
p152
S'16000000L'
p153
sS'variant'
p154
S'standard'
p155
ssS'bootloader'
p156
(dp157
S'extended_fuses'
p158
S'0x00'
p159
sS'high_fuses'
p160
S'0xdd'
p161
sS'low_fuses'
p162
S'0xff'
p163
sS'lock_bits'
p164
S'0x0F'
p165
sS'file'
p166
S'ATmegaBOOT_168_diecimila.hex'
p167
sS'path'
p168
S'atmega'
p169
sS'unlock_bits'
p170
S'0x3F'
p171
ssS'upload'
p172
(dp173
S'protocol'
p174
S'arduino'
p175
sS'maximum_size'
p176
S'14336'
p177
sS'speed'
p178
S'19200'
p179
ssS'name'
p180
S'Arduino Diecimila or Duemilanove w/ ATmega168'
p181
saa(lp182
S'nano328'
p183
a(dp184
S'build'
p185
(dp186
S'core'
p187
S'arduino'
p188
sS'mcu'
p189
S'atmega328p'
p190
sS'f_cpu'
p191
S'16000000L'
p192
sS'variant'
p193
S'eightanaloginputs'
p194
ssS'bootloader'
p195
(dp196
S'extended_fuses'
p197
S'0x05'
p198
sS'high_fuses'
p199
S'0xDA'
p200
sS'low_fuses'
p201
S'0xFF'
p202
sS'lock_bits'
p203
S'0x0F'
p204
sS'file'
p205
S'ATmegaBOOT_168_atmega328.hex'
p206
sS'path'
p207
S'atmega'
p208
sS'unlock_bits'
p209
S'0x3F'
p210
ssS'upload'
p211
(dp212
S'protocol'
p213
S'arduino'
p214
sS'maximum_size'
p215
S'30720'
p216
sS'speed'
p217
S'57600'
p218
ssS'name'
p219
S'Arduino Nano w/ ATmega328'
p220
saa(lp221
S'nano'
p222
a(dp223
S'build'
p224
(dp225
S'core'
p226
S'arduino'
p227
sS'mcu'
p228
S'atmega168'
p229
sS'f_cpu'
p230
S'16000000L'
p231
sS'variant'
p232
S'eightanaloginputs'
p233
ssS'bootloader'
p234
(dp235
S'extended_fuses'
p236
S'0x00'
p237
sS'high_fuses'
p238
S'0xdd'
p239
sS'low_fuses'
p240
S'0xff'
p241
sS'lock_bits'
p242
S'0x0F'
p243
sS'file'
p244
S'ATmegaBOOT_168_diecimila.hex'
p245
sS'path'
p246
S'atmega'
p247
sS'unlock_bits'
p248
S'0x3F'
p249
ssS'upload'
p250
(dp251
S'protocol'
p252
S'arduino'
p253
sS'maximum_size'
p254
S'14336'
p255
sS'speed'
p256
S'19200'
p257
ssS'name'
p258
S'Arduino Nano w/ ATmega168'
p259
saa(lp260
S'mega2560'
p261
a(dp262
S'build'
p263
(dp264
S'core'
p265
S'arduino'
p266
sS'mcu'
p267
S'atmega2560'
p268
sS'f_cpu'
p269
S'16000000L'
p270
sS'variant'
p271
S'mega'
p272
ssS'bootloader'
p273
(dp274
S'extended_fuses'
p275
S'0xFD'
p276
sS'high_fuses'
p277
S'0xD8'
p278
sS'low_fuses'
p279
S'0xFF'
p280
sS'lock_bits'
p281
S'0x0F'
p282
sS'file'
p283
S'stk500boot_v2_mega2560.hex'
p284
sS'path'
p285
S'stk500v2'
p286
sS'unlock_bits'
p287
S'0x3F'
p288
ssS'upload'
p289
(dp290
S'protocol'
p291
S'stk500v2'
p292
sS'maximum_size'
p293
S'258048'
p294
sS'speed'
p295
S'115200'
p296
ssS'name'
p297
S'Arduino Mega 2560 or Mega ADK'
p298
saa(lp299
S'mega'
p300
a(dp301
S'build'
p302
(dp303
S'core'
p304
S'arduino'
p305
sS'mcu'
p306
S'atmega1280'
p307
sS'f_cpu'
p308
S'16000000L'
p309
sS'variant'
p310
S'mega'
p311
ssS'bootloader'
p312
(dp313
S'extended_fuses'
p314
S'0xF5'
p315
sS'high_fuses'
p316
S'0xDA'
p317
sS'low_fuses'
p318
S'0xFF'
p319
sS'lock_bits'
p320
S'0x0F'
p321
sS'file'
p322
S'ATmegaBOOT_168_atmega1280.hex'
p323
sS'path'
p324
S'atmega'
p325
sS'unlock_bits'
p326
S'0x3F'
p327
ssS'upload'
p328
(dp329
S'protocol'
p330
S'arduino'
p331
sS'maximum_size'
p332
S'126976'
p333
sS'speed'
p334
S'57600'
p335
ssS'name'
p336
S'Arduino Mega (ATmega1280)'
p337
saa(lp338
S'leonardo'
p339
a(dp340
S'build'
p341
(dp342
S'core'
p343
S'arduino'
p344
sS'f_cpu'
p345
S'16000000L'
p346
sS'vid'
p347
S'0x2341'
p348
sS'pid'
p349
S'0x8036'
p350
sS'variant'
p351
S'leonardo'
p352
sS'mcu'
p353
S'atmega32u4'
p354
ssS'bootloader'
p355
(dp356
S'extended_fuses'
p357
S'0xcb'
p358
sS'high_fuses'
p359
S'0xd8'
p360
sS'low_fuses'
p361
S'0xff'
p362
sS'lock_bits'
p363
S'0x2F'
p364
sS'file'
p365
S'Caterina-Leonardo.hex'
p366
sS'path'
p367
S'caterina'
p368
sS'unlock_bits'
p369
S'0x3F'
p370
ssS'upload'
p371
(dp372
S'protocol'
p373
S'avr109'
p374
sS'maximum_size'
p375
S'28672'
p376
sS'speed'
p377
S'57600'
p378
sS'disable_flushing'
p379
S'true'
p380
ssS'name'
p381
S'Arduino Leonardo'
p382
saa(lp383
S'mini328'
p384
a(dp385
S'build'
p386
(dp387
S'core'
p388
S'arduino'
p389
sS'mcu'
p390
S'atmega328p'
p391
sS'f_cpu'
p392
S'16000000L'
p393
sS'variant'
p394
S'eightanaloginputs'
p395
ssS'bootloader'
p396
(dp397
S'extended_fuses'
p398
S'0x05'
p399
sS'high_fuses'
p400
S'0xd8'
p401
sS'low_fuses'
p402
S'0xff'
p403
sS'lock_bits'
p404
S'0x0F'
p405
sS'file'
p406
S'optiboot_atmega328-Mini.hex'
p407
sS'path'
p408
S'optiboot'
p409
sS'unlock_bits'
p410
S'0x3F'
p411
ssS'upload'
p412
(dp413
S'protocol'
p414
S'arduino'
p415
sS'maximum_size'
p416
S'28672'
p417
sS'speed'
p418
S'115200'
p419
ssS'name'
p420
S'Arduino Mini w/ ATmega328'
p421
saa(lp422
S'mini'
p423
a(dp424
S'build'
p425
(dp426
S'core'
p427
S'arduino'
p428
sS'mcu'
p429
S'atmega168'
p430
sS'f_cpu'
p431
S'16000000L'
p432
sS'variant'
p433
S'eightanaloginputs'
p434
ssS'bootloader'
p435
(dp436
S'extended_fuses'
p437
S'0x00'
p438
sS'high_fuses'
p439
S'0xdd'
p440
sS'low_fuses'
p441
S'0xff'
p442
sS'lock_bits'
p443
S'0x0F'
p444
sS'file'
p445
S'ATmegaBOOT_168_ng.hex'
p446
sS'path'
p447
S'atmega'
p448
sS'unlock_bits'
p449
S'0x3F'
p450
ssS'upload'
p451
(dp452
S'protocol'
p453
S'arduino'
p454
sS'maximum_size'
p455
S'14336'
p456
sS'speed'
p457
S'19200'
p458
ssS'name'
p459
S'Arduino Mini w/ ATmega168'
p460
saa(lp461
S'ethernet'
p462
a(dp463
S'build'
p464
(dp465
S'variant'
p466
S'standard'
p467
sS'mcu'
p468
S'atmega328p'
p469
sS'f_cpu'
p470
S'16000000L'
p471
sS'core'
p472
S'arduino'
p473
ssS'bootloader'
p474
(dp475
S'extended_fuses'
p476
S'0x05'
p477
sS'high_fuses'
p478
S'0xde'
p479
sS'low_fuses'
p480
S'0xff'
p481
sS'lock_bits'
p482
S'0x0F'
p483
sS'file'
p484
S'optiboot_atmega328.hex'
p485
sS'path'
p486
S'optiboot'
p487
sS'unlock_bits'
p488
S'0x3F'
p489
ssS'upload'
p490
(dp491
S'protocol'
p492
S'arduino'
p493
sS'maximum_size'
p494
S'32256'
p495
sS'speed'
p496
S'115200'
p497
ssS'name'
p498
S'Arduino Ethernet'
p499
saa(lp500
S'fio'
p501
a(dp502
S'build'
p503
(dp504
S'core'
p505
S'arduino'
p506
sS'mcu'
p507
S'atmega328p'
p508
sS'f_cpu'
p509
S'8000000L'
p510
sS'variant'
p511
S'eightanaloginputs'
p512
ssS'bootloader'
p513
(dp514
S'extended_fuses'
p515
S'0x05'
p516
sS'high_fuses'
p517
S'0xDA'
p518
sS'low_fuses'
p519
S'0xFF'
p520
sS'lock_bits'
p521
S'0x0F'
p522
sS'file'
p523
S'ATmegaBOOT_168_atmega328_pro_8MHz.hex'
p524
sS'path'
p525
S'arduino:atmega'
p526
sS'unlock_bits'
p527
S'0x3F'
p528
ssS'upload'
p529
(dp530
S'protocol'
p531
S'arduino'
p532
sS'maximum_size'
p533
S'30720'
p534
sS'speed'
p535
S'57600'
p536
ssS'name'
p537
S'Arduino Fio'
p538
saa(lp539
S'bt328'
p540
a(dp541
S'build'
p542
(dp543
S'core'
p544
S'arduino'
p545
sS'mcu'
p546
S'atmega328p'
p547
sS'f_cpu'
p548
S'16000000L'
p549
sS'variant'
p550
S'eightanaloginputs'
p551
ssS'bootloader'
p552
(dp553
S'extended_fuses'
p554
S'0x05'
p555
sS'high_fuses'
p556
S'0xd8'
p557
sS'low_fuses'
p558
S'0xff'
p559
sS'lock_bits'
p560
S'0x0F'
p561
sS'file'
p562
S'ATmegaBOOT_168_atmega328_bt.hex'
p563
sS'path'
p564
S'bt'
p565
sS'unlock_bits'
p566
S'0x3F'
p567
ssS'upload'
p568
(dp569
S'protocol'
p570
S'arduino'
p571
sS'maximum_size'
p572
S'28672'
p573
sS'speed'
p574
S'19200'
p575
sS'disable_flushing'
p576
S'true'
p577
ssS'name'
p578
S'Arduino BT w/ ATmega328'
p579
saa(lp580
S'bt'
p581
a(dp582
S'build'
p583
(dp584
S'core'
p585
S'arduino'
p586
sS'mcu'
p587
S'atmega168'
p588
sS'f_cpu'
p589
S'16000000L'
p590
sS'variant'
p591
S'eightanaloginputs'
p592
ssS'bootloader'
p593
(dp594
S'extended_fuses'
p595
S'0x00'
p596
sS'high_fuses'
p597
S'0xdd'
p598
sS'low_fuses'
p599
S'0xff'
p600
sS'lock_bits'
p601
S'0x0F'
p602
sS'file'
p603
S'ATmegaBOOT_168.hex'
p604
sS'path'
p605
S'bt'
p606
sS'unlock_bits'
p607
S'0x3F'
p608
ssS'upload'
p609
(dp610
S'protocol'
p611
S'arduino'
p612
sS'maximum_size'
p613
S'14336'
p614
sS'speed'
p615
S'19200'
p616
sS'disable_flushing'
p617
S'true'
p618
ssS'name'
p619
S'Arduino BT w/ ATmega168'
p620
saa(lp621
S'lilypad328'
p622
a(dp623
S'build'
p624
(dp625
S'core'
p626
S'arduino'
p627
sS'mcu'
p628
S'atmega328p'
p629
sS'f_cpu'
p630
S'8000000L'
p631
sS'variant'
p632
S'standard'
p633
ssS'bootloader'
p634
(dp635
S'extended_fuses'
p636
S'0x05'
p637
sS'high_fuses'
p638
S'0xDA'
p639
sS'low_fuses'
p640
S'0xFF'
p641
sS'lock_bits'
p642
S'0x0F'
p643
sS'file'
p644
S'ATmegaBOOT_168_atmega328_pro_8MHz.hex'
p645
sS'path'
p646
S'atmega'
p647
sS'unlock_bits'
p648
S'0x3F'
p649
ssS'upload'
p650
(dp651
S'protocol'
p652
S'arduino'
p653
sS'maximum_size'
p654
S'30720'
p655
sS'speed'
p656
S'57600'
p657
ssS'name'
p658
S'LilyPad Arduino w/ ATmega328'
p659
saa(lp660
S'lilypad'
p661
a(dp662
S'build'
p663
(dp664
S'core'
p665
S'arduino'
p666
sS'mcu'
p667
S'atmega168'
p668
sS'f_cpu'
p669
S'8000000L'
p670
sS'variant'
p671
S'standard'
p672
ssS'bootloader'
p673
(dp674
S'extended_fuses'
p675
S'0x00'
p676
sS'high_fuses'
p677
S'0xdd'
p678
sS'low_fuses'
p679
S'0xe2'
p680
sS'lock_bits'
p681
S'0x0F'
p682
sS'file'
p683
S'LilyPadBOOT_168.hex'
p684
sS'path'
p685
S'lilypad'
p686
sS'unlock_bits'
p687
S'0x3F'
p688
ssS'upload'
p689
(dp690
S'protocol'
p691
S'arduino'
p692
sS'maximum_size'
p693
S'14336'
p694
sS'speed'
p695
S'19200'
p696
ssS'name'
p697
S'LilyPad Arduino w/ ATmega168'
p698
saa(lp699
S'pro5v328'
p700
a(dp701
S'build'
p702
(dp703
S'core'
p704
S'arduino'
p705
sS'mcu'
p706
S'atmega328p'
p707
sS'f_cpu'
p708
S'16000000L'
p709
sS'variant'
p710
S'standard'
p711
ssS'bootloader'
p712
(dp713
S'extended_fuses'
p714
S'0x05'
p715
sS'high_fuses'
p716
S'0xDA'
p717
sS'low_fuses'
p718
S'0xFF'
p719
sS'lock_bits'
p720
S'0x0F'
p721
sS'file'
p722
S'ATmegaBOOT_168_atmega328.hex'
p723
sS'path'
p724
S'atmega'
p725
sS'unlock_bits'
p726
S'0x3F'
p727
ssS'upload'
p728
(dp729
S'protocol'
p730
S'arduino'
p731
sS'maximum_size'
p732
S'30720'
p733
sS'speed'
p734
S'57600'
p735
ssS'name'
p736
S'Arduino Pro or Pro Mini (5V, 16 MHz) w/ ATmega328'
p737
saa(lp738
S'pro5v'
p739
a(dp740
S'build'
p741
(dp742
S'core'
p743
S'arduino'
p744
sS'mcu'
p745
S'atmega168'
p746
sS'f_cpu'
p747
S'16000000L'
p748
sS'variant'
p749
S'standard'
p750
ssS'bootloader'
p751
(dp752
S'extended_fuses'
p753
S'0x00'
p754
sS'high_fuses'
p755
S'0xdd'
p756
sS'low_fuses'
p757
S'0xff'
p758
sS'lock_bits'
p759
S'0x0F'
p760
sS'file'
p761
S'ATmegaBOOT_168_diecimila.hex'
p762
sS'path'
p763
S'atmega'
p764
sS'unlock_bits'
p765
S'0x3F'
p766
ssS'upload'
p767
(dp768
S'protocol'
p769
S'arduino'
p770
sS'maximum_size'
p771
S'14336'
p772
sS'speed'
p773
S'19200'
p774
ssS'name'
p775
S'Arduino Pro or Pro Mini (5V, 16 MHz) w/ ATmega168'
p776
saa(lp777
S'pro328'
p778
a(dp779
S'build'
p780
(dp781
S'core'
p782
S'arduino'
p783
sS'mcu'
p784
S'atmega328p'
p785
sS'f_cpu'
p786
S'8000000L'
p787
sS'variant'
p788
S'standard'
p789
ssS'bootloader'
p790
(dp791
S'extended_fuses'
p792
S'0x05'
p793
sS'high_fuses'
p794
S'0xDA'
p795
sS'low_fuses'
p796
S'0xFF'
p797
sS'lock_bits'
p798
S'0x0F'
p799
sS'file'
p800
S'ATmegaBOOT_168_atmega328_pro_8MHz.hex'
p801
sS'path'
p802
S'atmega'
p803
sS'unlock_bits'
p804
S'0x3F'
p805
ssS'upload'
p806
(dp807
S'protocol'
p808
S'arduino'
p809
sS'maximum_size'
p810
S'30720'
p811
sS'speed'
p812
S'57600'
p813
ssS'name'
p814
S'Arduino Pro or Pro Mini (3.3V, 8 MHz) w/ ATmega328'
p815
saa(lp816
S'pro'
p817
a(dp818
S'build'
p819
(dp820
S'core'
p821
S'arduino'
p822
sS'mcu'
p823
S'atmega168'
p824
sS'f_cpu'
p825
S'8000000L'
p826
sS'variant'
p827
S'standard'
p828
ssS'bootloader'
p829
(dp830
S'extended_fuses'
p831
S'0x00'
p832
sS'high_fuses'
p833
S'0xdd'
p834
sS'low_fuses'
p835
S'0xc6'
p836
sS'lock_bits'
p837
S'0x0F'
p838
sS'file'
p839
S'ATmegaBOOT_168_pro_8MHz.hex'
p840
sS'path'
p841
S'atmega'
p842
sS'unlock_bits'
p843
S'0x3F'
p844
ssS'upload'
p845
(dp846
S'protocol'
p847
S'arduino'
p848
sS'maximum_size'
p849
S'14336'
p850
sS'speed'
p851
S'19200'
p852
ssS'name'
p853
S'Arduino Pro or Pro Mini (3.3V, 8 MHz) w/ ATmega168'
p854
saa(lp855
S'atmega168'
p856
a(dp857
S'build'
p858
(dp859
S'core'
p860
S'arduino'
p861
sS'mcu'
p862
S'atmega168'
p863
sS'f_cpu'
p864
S'16000000L'
p865
sS'variant'
p866
S'standard'
p867
ssS'bootloader'
p868
(dp869
S'extended_fuses'
p870
S'0x00'
p871
sS'high_fuses'
p872
S'0xdd'
p873
sS'low_fuses'
p874
S'0xff'
p875
sS'lock_bits'
p876
S'0x0F'
p877
sS'file'
p878
S'ATmegaBOOT_168_ng.hex'
p879
sS'path'
p880
S'atmega'
p881
sS'unlock_bits'
p882
S'0x3F'
p883
ssS'upload'
p884
(dp885
S'protocol'
p886
S'arduino'
p887
sS'maximum_size'
p888
S'14336'
p889
sS'speed'
p890
S'19200'
p891
ssS'name'
p892
S'Arduino NG or older w/ ATmega168'
p893
saa(lp894
S'atmega8'
p895
a(dp896
S'build'
p897
(dp898
S'core'
p899
S'arduino'
p900
sS'mcu'
p901
S'atmega8'
p902
sS'f_cpu'
p903
S'16000000L'
p904
sS'variant'
p905
S'standard'
p906
ssS'bootloader'
p907
(dp908
S'high_fuses'
p909
S'0xca'
p910
sS'low_fuses'
p911
S'0xdf'
p912
sS'lock_bits'
p913
S'0x0F'
p914
sS'file'
p915
S'ATmegaBOOT.hex'
p916
sS'path'
p917
S'atmega8'
p918
sS'unlock_bits'
p919
S'0x3F'
p920
ssS'upload'
p921
(dp922
S'protocol'
p923
S'arduino'
p924
sS'maximum_size'
p925
S'7168'
p926
sS'speed'
p927
S'19200'
p928
ssS'name'
p929
S'Arduino NG or older w/ ATmega8'
p930
saatp931
Rp932
(dp933
S'default'
p934
S'uno'
p935
sbtp936
a(S'used_libs'
p937
(lp938
S'/usr/share/arduino/libraries/Servo'
p939
aS'/usr/share/arduino/libraries/DHT'
p940
aS'/usr/share/arduino/hardware/arduino/cores/arduino'
p941
atp942
a(S'make'
p943
S'/usr/bin/make'
p944
tp945
a(S'build_dir'
p946
S'.build/uno'
p947
tp948
a(S'cc'
p949
S'/usr/bin/avr-gcc'
p950
tp951
a(S'cflags'
p952
g2
(g3
g4
(lp953
tp954
Rp955
tp956
a(S'cxxflags'
p957
g2
(g3
g4
(lp958
S'-fno-exceptions'
p959
atp960
Rp961
tp962
a(S'arduino_variants_dir'
p963
S'/usr/share/arduino/hardware/arduino/variants'
p964
tp965
a(S'stty'
p966
S'/bin/stty'
p967
tp968
a(S'version.txt'
p969
S'/usr/share/arduino/lib/version.txt'
p970
tp971
a(S'arduino_core_dir'
p972
g941
tp973
a(S'boards.txt'
p974
S'/usr/share/arduino/hardware/arduino/boards.txt'
p975
tp976
a(S'avrdude.conf'
p977
S'/usr/share/arduino/hardware/tools/avrdude.conf'
p978
tp979
a(S'deps'
p980
g2
(g3
g4
(lp981
S'.build/uno/src/dependencies.d'
p982
aS'.build/uno/arduino/dependencies.d'
p983
aS'.build/uno/Servo/dependencies.d'
p984
aS'.build/uno/DHT/dependencies.d'
p985
atp986
Rp987
tp988
a.