(lp0
(S'cppflags'
p1
ccopy_reg
_reconstructor
p2
(cino.utils
SpaceList
p3
c__builtin__
list
p4
(lp5
S'-mmcu=atmega328p'
p6
aS'-DF_CPU=16000000L'
p7
aS'-DARDUINO=101'
p8
aS'-I/usr/share/arduino/hardware/arduino/cores/arduino'
p9
aS'-ffunction-sections'
p10
aS'-fdata-sections'
p11
aS'-g'
p12
aS'-Os'
p13
aS'-w'
p14
aS'-I/usr/share/arduino/hardware/arduino/variants/standard'
p15
aS'-I/usr/share/arduino/libraries/DHT'
p16
aS'-I/usr/share/arduino/hardware/arduino/cores/arduino'
p17
atp18
Rp19
tp20
a(S'cxx'
p21
S'/usr/bin/avr-g++'
p22
tp23
a(S'arduino_libraries_dir'
p24
S'/usr/share/arduino/libraries'
p25
tp26
a(S'avrdude'
p27
S'/usr/share/arduino/hardware/tools/avrdude'
p28
tp29
a(S'ar'
p30
S'/usr/bin/avr-ar'
p31
tp32
a(S'names'
p33
(dp34
S'cpp'
p35
S'%s.cpp'
p36
sS'obj'
p37
S'%s.o'
p38
sS'lib'
p39
S'lib%s.a'
p40
sS'deps'
p41
S'%s.d'
p42
stp43
a(S'ldflags'
p44
g2
(g3
g4
(lp45
g6
aS'-Wl,-Os'
p46
aS'-Wl,--gc-sections'
p47
atp48
Rp49
tp50
a(S'arduino_lib_version'
p51
g2
(cino.environment
Version
p52
c__builtin__
tuple
p53
(I1
I0
I1
tp54
tp55
Rp56
tp57
a(S'objcopy'
p58
S'/usr/bin/avr-objcopy'
p59
tp60
a(S'board_models'
p61
cino.environment
BoardModels
p62
((lp63
(lp64
S'uno'
p65
a(dp66
S'build'
p67
(dp68
S'core'
p69
S'arduino'
p70
sS'mcu'
p71
S'atmega328p'
p72
sS'f_cpu'
p73
S'16000000L'
p74
sS'variant'
p75
S'standard'
p76
ssS'bootloader'
p77
(dp78
S'extended_fuses'
p79
S'0x05'
p80
sS'high_fuses'
p81
S'0xde'
p82
sS'low_fuses'
p83
S'0xff'
p84
sS'lock_bits'
p85
S'0x0F'
p86
sS'file'
p87
S'optiboot_atmega328.hex'
p88
sS'path'
p89
S'optiboot'
p90
sS'unlock_bits'
p91
S'0x3F'
p92
ssS'upload'
p93
(dp94
S'protocol'
p95
S'arduino'
p96
sS'maximum_size'
p97
S'32256'
p98
sS'speed'
p99
S'115200'
p100
ssS'name'
p101
S'Arduino Uno'
p102
saa(lp103
S'atmega328'
p104
a(dp105
S'build'
p106
(dp107
S'core'
p108
S'arduino'
p109
sS'mcu'
p110
S'atmega328p'
p111
sS'f_cpu'
p112
S'16000000L'
p113
sS'variant'
p114
S'standard'
p115
ssS'bootloader'
p116
(dp117
S'extended_fuses'
p118
S'0x05'
p119
sS'high_fuses'
p120
S'0xDA'
p121
sS'low_fuses'
p122
S'0xFF'
p123
sS'lock_bits'
p124
S'0x0F'
p125
sS'file'
p126
S'ATmegaBOOT_168_atmega328.hex'
p127
sS'path'
p128
S'atmega'
p129
sS'unlock_bits'
p130
S'0x3F'
p131
ssS'upload'
p132
(dp133
S'protocol'
p134
S'arduino'
p135
sS'maximum_size'
p136
S'30720'
p137
sS'speed'
p138
S'57600'
p139
ssS'name'
p140
S'Arduino Duemilanove w/ ATmega328'
p141
saa(lp142
S'diecimila'
p143
a(dp144
S'build'
p145
(dp146
S'core'
p147
S'arduino'
p148
sS'mcu'
p149
S'atmega168'
p150
sS'f_cpu'
p151
S'16000000L'
p152
sS'variant'
p153
S'standard'
p154
ssS'bootloader'
p155
(dp156
S'extended_fuses'
p157
S'0x00'
p158
sS'high_fuses'
p159
S'0xdd'
p160
sS'low_fuses'
p161
S'0xff'
p162
sS'lock_bits'
p163
S'0x0F'
p164
sS'file'
p165
S'ATmegaBOOT_168_diecimila.hex'
p166
sS'path'
p167
S'atmega'
p168
sS'unlock_bits'
p169
S'0x3F'
p170
ssS'upload'
p171
(dp172
S'protocol'
p173
S'arduino'
p174
sS'maximum_size'
p175
S'14336'
p176
sS'speed'
p177
S'19200'
p178
ssS'name'
p179
S'Arduino Diecimila or Duemilanove w/ ATmega168'
p180
saa(lp181
S'nano328'
p182
a(dp183
S'build'
p184
(dp185
S'core'
p186
S'arduino'
p187
sS'mcu'
p188
S'atmega328p'
p189
sS'f_cpu'
p190
S'16000000L'
p191
sS'variant'
p192
S'eightanaloginputs'
p193
ssS'bootloader'
p194
(dp195
S'extended_fuses'
p196
S'0x05'
p197
sS'high_fuses'
p198
S'0xDA'
p199
sS'low_fuses'
p200
S'0xFF'
p201
sS'lock_bits'
p202
S'0x0F'
p203
sS'file'
p204
S'ATmegaBOOT_168_atmega328.hex'
p205
sS'path'
p206
S'atmega'
p207
sS'unlock_bits'
p208
S'0x3F'
p209
ssS'upload'
p210
(dp211
S'protocol'
p212
S'arduino'
p213
sS'maximum_size'
p214
S'30720'
p215
sS'speed'
p216
S'57600'
p217
ssS'name'
p218
S'Arduino Nano w/ ATmega328'
p219
saa(lp220
S'nano'
p221
a(dp222
S'build'
p223
(dp224
S'core'
p225
S'arduino'
p226
sS'mcu'
p227
S'atmega168'
p228
sS'f_cpu'
p229
S'16000000L'
p230
sS'variant'
p231
S'eightanaloginputs'
p232
ssS'bootloader'
p233
(dp234
S'extended_fuses'
p235
S'0x00'
p236
sS'high_fuses'
p237
S'0xdd'
p238
sS'low_fuses'
p239
S'0xff'
p240
sS'lock_bits'
p241
S'0x0F'
p242
sS'file'
p243
S'ATmegaBOOT_168_diecimila.hex'
p244
sS'path'
p245
S'atmega'
p246
sS'unlock_bits'
p247
S'0x3F'
p248
ssS'upload'
p249
(dp250
S'protocol'
p251
S'arduino'
p252
sS'maximum_size'
p253
S'14336'
p254
sS'speed'
p255
S'19200'
p256
ssS'name'
p257
S'Arduino Nano w/ ATmega168'
p258
saa(lp259
S'mega2560'
p260
a(dp261
S'build'
p262
(dp263
S'core'
p264
S'arduino'
p265
sS'mcu'
p266
S'atmega2560'
p267
sS'f_cpu'
p268
S'16000000L'
p269
sS'variant'
p270
S'mega'
p271
ssS'bootloader'
p272
(dp273
S'extended_fuses'
p274
S'0xFD'
p275
sS'high_fuses'
p276
S'0xD8'
p277
sS'low_fuses'
p278
S'0xFF'
p279
sS'lock_bits'
p280
S'0x0F'
p281
sS'file'
p282
S'stk500boot_v2_mega2560.hex'
p283
sS'path'
p284
S'stk500v2'
p285
sS'unlock_bits'
p286
S'0x3F'
p287
ssS'upload'
p288
(dp289
S'protocol'
p290
S'stk500v2'
p291
sS'maximum_size'
p292
S'258048'
p293
sS'speed'
p294
S'115200'
p295
ssS'name'
p296
S'Arduino Mega 2560 or Mega ADK'
p297
saa(lp298
S'mega'
p299
a(dp300
S'build'
p301
(dp302
S'core'
p303
S'arduino'
p304
sS'mcu'
p305
S'atmega1280'
p306
sS'f_cpu'
p307
S'16000000L'
p308
sS'variant'
p309
S'mega'
p310
ssS'bootloader'
p311
(dp312
S'extended_fuses'
p313
S'0xF5'
p314
sS'high_fuses'
p315
S'0xDA'
p316
sS'low_fuses'
p317
S'0xFF'
p318
sS'lock_bits'
p319
S'0x0F'
p320
sS'file'
p321
S'ATmegaBOOT_168_atmega1280.hex'
p322
sS'path'
p323
S'atmega'
p324
sS'unlock_bits'
p325
S'0x3F'
p326
ssS'upload'
p327
(dp328
S'protocol'
p329
S'arduino'
p330
sS'maximum_size'
p331
S'126976'
p332
sS'speed'
p333
S'57600'
p334
ssS'name'
p335
S'Arduino Mega (ATmega1280)'
p336
saa(lp337
S'leonardo'
p338
a(dp339
S'build'
p340
(dp341
S'core'
p342
S'arduino'
p343
sS'f_cpu'
p344
S'16000000L'
p345
sS'vid'
p346
S'0x2341'
p347
sS'pid'
p348
S'0x8036'
p349
sS'variant'
p350
S'leonardo'
p351
sS'mcu'
p352
S'atmega32u4'
p353
ssS'bootloader'
p354
(dp355
S'extended_fuses'
p356
S'0xcb'
p357
sS'high_fuses'
p358
S'0xd8'
p359
sS'low_fuses'
p360
S'0xff'
p361
sS'lock_bits'
p362
S'0x2F'
p363
sS'file'
p364
S'Caterina-Leonardo.hex'
p365
sS'path'
p366
S'caterina'
p367
sS'unlock_bits'
p368
S'0x3F'
p369
ssS'upload'
p370
(dp371
S'protocol'
p372
S'avr109'
p373
sS'maximum_size'
p374
S'28672'
p375
sS'speed'
p376
S'57600'
p377
sS'disable_flushing'
p378
S'true'
p379
ssS'name'
p380
S'Arduino Leonardo'
p381
saa(lp382
S'mini328'
p383
a(dp384
S'build'
p385
(dp386
S'core'
p387
S'arduino'
p388
sS'mcu'
p389
S'atmega328p'
p390
sS'f_cpu'
p391
S'16000000L'
p392
sS'variant'
p393
S'eightanaloginputs'
p394
ssS'bootloader'
p395
(dp396
S'extended_fuses'
p397
S'0x05'
p398
sS'high_fuses'
p399
S'0xd8'
p400
sS'low_fuses'
p401
S'0xff'
p402
sS'lock_bits'
p403
S'0x0F'
p404
sS'file'
p405
S'optiboot_atmega328-Mini.hex'
p406
sS'path'
p407
S'optiboot'
p408
sS'unlock_bits'
p409
S'0x3F'
p410
ssS'upload'
p411
(dp412
S'protocol'
p413
S'arduino'
p414
sS'maximum_size'
p415
S'28672'
p416
sS'speed'
p417
S'115200'
p418
ssS'name'
p419
S'Arduino Mini w/ ATmega328'
p420
saa(lp421
S'mini'
p422
a(dp423
S'build'
p424
(dp425
S'core'
p426
S'arduino'
p427
sS'mcu'
p428
S'atmega168'
p429
sS'f_cpu'
p430
S'16000000L'
p431
sS'variant'
p432
S'eightanaloginputs'
p433
ssS'bootloader'
p434
(dp435
S'extended_fuses'
p436
S'0x00'
p437
sS'high_fuses'
p438
S'0xdd'
p439
sS'low_fuses'
p440
S'0xff'
p441
sS'lock_bits'
p442
S'0x0F'
p443
sS'file'
p444
S'ATmegaBOOT_168_ng.hex'
p445
sS'path'
p446
S'atmega'
p447
sS'unlock_bits'
p448
S'0x3F'
p449
ssS'upload'
p450
(dp451
S'protocol'
p452
S'arduino'
p453
sS'maximum_size'
p454
S'14336'
p455
sS'speed'
p456
S'19200'
p457
ssS'name'
p458
S'Arduino Mini w/ ATmega168'
p459
saa(lp460
S'ethernet'
p461
a(dp462
S'build'
p463
(dp464
S'variant'
p465
S'standard'
p466
sS'mcu'
p467
S'atmega328p'
p468
sS'f_cpu'
p469
S'16000000L'
p470
sS'core'
p471
S'arduino'
p472
ssS'bootloader'
p473
(dp474
S'extended_fuses'
p475
S'0x05'
p476
sS'high_fuses'
p477
S'0xde'
p478
sS'low_fuses'
p479
S'0xff'
p480
sS'lock_bits'
p481
S'0x0F'
p482
sS'file'
p483
S'optiboot_atmega328.hex'
p484
sS'path'
p485
S'optiboot'
p486
sS'unlock_bits'
p487
S'0x3F'
p488
ssS'upload'
p489
(dp490
S'protocol'
p491
S'arduino'
p492
sS'maximum_size'
p493
S'32256'
p494
sS'speed'
p495
S'115200'
p496
ssS'name'
p497
S'Arduino Ethernet'
p498
saa(lp499
S'fio'
p500
a(dp501
S'build'
p502
(dp503
S'core'
p504
S'arduino'
p505
sS'mcu'
p506
S'atmega328p'
p507
sS'f_cpu'
p508
S'8000000L'
p509
sS'variant'
p510
S'eightanaloginputs'
p511
ssS'bootloader'
p512
(dp513
S'extended_fuses'
p514
S'0x05'
p515
sS'high_fuses'
p516
S'0xDA'
p517
sS'low_fuses'
p518
S'0xFF'
p519
sS'lock_bits'
p520
S'0x0F'
p521
sS'file'
p522
S'ATmegaBOOT_168_atmega328_pro_8MHz.hex'
p523
sS'path'
p524
S'arduino:atmega'
p525
sS'unlock_bits'
p526
S'0x3F'
p527
ssS'upload'
p528
(dp529
S'protocol'
p530
S'arduino'
p531
sS'maximum_size'
p532
S'30720'
p533
sS'speed'
p534
S'57600'
p535
ssS'name'
p536
S'Arduino Fio'
p537
saa(lp538
S'bt328'
p539
a(dp540
S'build'
p541
(dp542
S'core'
p543
S'arduino'
p544
sS'mcu'
p545
S'atmega328p'
p546
sS'f_cpu'
p547
S'16000000L'
p548
sS'variant'
p549
S'eightanaloginputs'
p550
ssS'bootloader'
p551
(dp552
S'extended_fuses'
p553
S'0x05'
p554
sS'high_fuses'
p555
S'0xd8'
p556
sS'low_fuses'
p557
S'0xff'
p558
sS'lock_bits'
p559
S'0x0F'
p560
sS'file'
p561
S'ATmegaBOOT_168_atmega328_bt.hex'
p562
sS'path'
p563
S'bt'
p564
sS'unlock_bits'
p565
S'0x3F'
p566
ssS'upload'
p567
(dp568
S'protocol'
p569
S'arduino'
p570
sS'maximum_size'
p571
S'28672'
p572
sS'speed'
p573
S'19200'
p574
sS'disable_flushing'
p575
S'true'
p576
ssS'name'
p577
S'Arduino BT w/ ATmega328'
p578
saa(lp579
S'bt'
p580
a(dp581
S'build'
p582
(dp583
S'core'
p584
S'arduino'
p585
sS'mcu'
p586
S'atmega168'
p587
sS'f_cpu'
p588
S'16000000L'
p589
sS'variant'
p590
S'eightanaloginputs'
p591
ssS'bootloader'
p592
(dp593
S'extended_fuses'
p594
S'0x00'
p595
sS'high_fuses'
p596
S'0xdd'
p597
sS'low_fuses'
p598
S'0xff'
p599
sS'lock_bits'
p600
S'0x0F'
p601
sS'file'
p602
S'ATmegaBOOT_168.hex'
p603
sS'path'
p604
S'bt'
p605
sS'unlock_bits'
p606
S'0x3F'
p607
ssS'upload'
p608
(dp609
S'protocol'
p610
S'arduino'
p611
sS'maximum_size'
p612
S'14336'
p613
sS'speed'
p614
S'19200'
p615
sS'disable_flushing'
p616
S'true'
p617
ssS'name'
p618
S'Arduino BT w/ ATmega168'
p619
saa(lp620
S'lilypad328'
p621
a(dp622
S'build'
p623
(dp624
S'core'
p625
S'arduino'
p626
sS'mcu'
p627
S'atmega328p'
p628
sS'f_cpu'
p629
S'8000000L'
p630
sS'variant'
p631
S'standard'
p632
ssS'bootloader'
p633
(dp634
S'extended_fuses'
p635
S'0x05'
p636
sS'high_fuses'
p637
S'0xDA'
p638
sS'low_fuses'
p639
S'0xFF'
p640
sS'lock_bits'
p641
S'0x0F'
p642
sS'file'
p643
S'ATmegaBOOT_168_atmega328_pro_8MHz.hex'
p644
sS'path'
p645
S'atmega'
p646
sS'unlock_bits'
p647
S'0x3F'
p648
ssS'upload'
p649
(dp650
S'protocol'
p651
S'arduino'
p652
sS'maximum_size'
p653
S'30720'
p654
sS'speed'
p655
S'57600'
p656
ssS'name'
p657
S'LilyPad Arduino w/ ATmega328'
p658
saa(lp659
S'lilypad'
p660
a(dp661
S'build'
p662
(dp663
S'core'
p664
S'arduino'
p665
sS'mcu'
p666
S'atmega168'
p667
sS'f_cpu'
p668
S'8000000L'
p669
sS'variant'
p670
S'standard'
p671
ssS'bootloader'
p672
(dp673
S'extended_fuses'
p674
S'0x00'
p675
sS'high_fuses'
p676
S'0xdd'
p677
sS'low_fuses'
p678
S'0xe2'
p679
sS'lock_bits'
p680
S'0x0F'
p681
sS'file'
p682
S'LilyPadBOOT_168.hex'
p683
sS'path'
p684
S'lilypad'
p685
sS'unlock_bits'
p686
S'0x3F'
p687
ssS'upload'
p688
(dp689
S'protocol'
p690
S'arduino'
p691
sS'maximum_size'
p692
S'14336'
p693
sS'speed'
p694
S'19200'
p695
ssS'name'
p696
S'LilyPad Arduino w/ ATmega168'
p697
saa(lp698
S'pro5v328'
p699
a(dp700
S'build'
p701
(dp702
S'core'
p703
S'arduino'
p704
sS'mcu'
p705
S'atmega328p'
p706
sS'f_cpu'
p707
S'16000000L'
p708
sS'variant'
p709
S'standard'
p710
ssS'bootloader'
p711
(dp712
S'extended_fuses'
p713
S'0x05'
p714
sS'high_fuses'
p715
S'0xDA'
p716
sS'low_fuses'
p717
S'0xFF'
p718
sS'lock_bits'
p719
S'0x0F'
p720
sS'file'
p721
S'ATmegaBOOT_168_atmega328.hex'
p722
sS'path'
p723
S'atmega'
p724
sS'unlock_bits'
p725
S'0x3F'
p726
ssS'upload'
p727
(dp728
S'protocol'
p729
S'arduino'
p730
sS'maximum_size'
p731
S'30720'
p732
sS'speed'
p733
S'57600'
p734
ssS'name'
p735
S'Arduino Pro or Pro Mini (5V, 16 MHz) w/ ATmega328'
p736
saa(lp737
S'pro5v'
p738
a(dp739
S'build'
p740
(dp741
S'core'
p742
S'arduino'
p743
sS'mcu'
p744
S'atmega168'
p745
sS'f_cpu'
p746
S'16000000L'
p747
sS'variant'
p748
S'standard'
p749
ssS'bootloader'
p750
(dp751
S'extended_fuses'
p752
S'0x00'
p753
sS'high_fuses'
p754
S'0xdd'
p755
sS'low_fuses'
p756
S'0xff'
p757
sS'lock_bits'
p758
S'0x0F'
p759
sS'file'
p760
S'ATmegaBOOT_168_diecimila.hex'
p761
sS'path'
p762
S'atmega'
p763
sS'unlock_bits'
p764
S'0x3F'
p765
ssS'upload'
p766
(dp767
S'protocol'
p768
S'arduino'
p769
sS'maximum_size'
p770
S'14336'
p771
sS'speed'
p772
S'19200'
p773
ssS'name'
p774
S'Arduino Pro or Pro Mini (5V, 16 MHz) w/ ATmega168'
p775
saa(lp776
S'pro328'
p777
a(dp778
S'build'
p779
(dp780
S'core'
p781
S'arduino'
p782
sS'mcu'
p783
S'atmega328p'
p784
sS'f_cpu'
p785
S'8000000L'
p786
sS'variant'
p787
S'standard'
p788
ssS'bootloader'
p789
(dp790
S'extended_fuses'
p791
S'0x05'
p792
sS'high_fuses'
p793
S'0xDA'
p794
sS'low_fuses'
p795
S'0xFF'
p796
sS'lock_bits'
p797
S'0x0F'
p798
sS'file'
p799
S'ATmegaBOOT_168_atmega328_pro_8MHz.hex'
p800
sS'path'
p801
S'atmega'
p802
sS'unlock_bits'
p803
S'0x3F'
p804
ssS'upload'
p805
(dp806
S'protocol'
p807
S'arduino'
p808
sS'maximum_size'
p809
S'30720'
p810
sS'speed'
p811
S'57600'
p812
ssS'name'
p813
S'Arduino Pro or Pro Mini (3.3V, 8 MHz) w/ ATmega328'
p814
saa(lp815
S'pro'
p816
a(dp817
S'build'
p818
(dp819
S'core'
p820
S'arduino'
p821
sS'mcu'
p822
S'atmega168'
p823
sS'f_cpu'
p824
S'8000000L'
p825
sS'variant'
p826
S'standard'
p827
ssS'bootloader'
p828
(dp829
S'extended_fuses'
p830
S'0x00'
p831
sS'high_fuses'
p832
S'0xdd'
p833
sS'low_fuses'
p834
S'0xc6'
p835
sS'lock_bits'
p836
S'0x0F'
p837
sS'file'
p838
S'ATmegaBOOT_168_pro_8MHz.hex'
p839
sS'path'
p840
S'atmega'
p841
sS'unlock_bits'
p842
S'0x3F'
p843
ssS'upload'
p844
(dp845
S'protocol'
p846
S'arduino'
p847
sS'maximum_size'
p848
S'14336'
p849
sS'speed'
p850
S'19200'
p851
ssS'name'
p852
S'Arduino Pro or Pro Mini (3.3V, 8 MHz) w/ ATmega168'
p853
saa(lp854
S'atmega168'
p855
a(dp856
S'build'
p857
(dp858
S'core'
p859
S'arduino'
p860
sS'mcu'
p861
S'atmega168'
p862
sS'f_cpu'
p863
S'16000000L'
p864
sS'variant'
p865
S'standard'
p866
ssS'bootloader'
p867
(dp868
S'extended_fuses'
p869
S'0x00'
p870
sS'high_fuses'
p871
S'0xdd'
p872
sS'low_fuses'
p873
S'0xff'
p874
sS'lock_bits'
p875
S'0x0F'
p876
sS'file'
p877
S'ATmegaBOOT_168_ng.hex'
p878
sS'path'
p879
S'atmega'
p880
sS'unlock_bits'
p881
S'0x3F'
p882
ssS'upload'
p883
(dp884
S'protocol'
p885
S'arduino'
p886
sS'maximum_size'
p887
S'14336'
p888
sS'speed'
p889
S'19200'
p890
ssS'name'
p891
S'Arduino NG or older w/ ATmega168'
p892
saa(lp893
S'atmega8'
p894
a(dp895
S'build'
p896
(dp897
S'core'
p898
S'arduino'
p899
sS'mcu'
p900
S'atmega8'
p901
sS'f_cpu'
p902
S'16000000L'
p903
sS'variant'
p904
S'standard'
p905
ssS'bootloader'
p906
(dp907
S'high_fuses'
p908
S'0xca'
p909
sS'low_fuses'
p910
S'0xdf'
p911
sS'lock_bits'
p912
S'0x0F'
p913
sS'file'
p914
S'ATmegaBOOT.hex'
p915
sS'path'
p916
S'atmega8'
p917
sS'unlock_bits'
p918
S'0x3F'
p919
ssS'upload'
p920
(dp921
S'protocol'
p922
S'arduino'
p923
sS'maximum_size'
p924
S'7168'
p925
sS'speed'
p926
S'19200'
p927
ssS'name'
p928
S'Arduino NG or older w/ ATmega8'
p929
saatp930
Rp931
(dp932
S'default'
p933
S'uno'
p934
sbtp935
a(S'used_libs'
p936
(lp937
S'/usr/share/arduino/libraries/DHT'
p938
aS'/usr/share/arduino/hardware/arduino/cores/arduino'
p939
atp940
a(S'make'
p941
S'/usr/bin/make'
p942
tp943
a(S'build_dir'
p944
S'.build/uno'
p945
tp946
a(S'cc'
p947
S'/usr/bin/avr-gcc'
p948
tp949
a(S'cflags'
p950
g2
(g3
g4
(lp951
tp952
Rp953
tp954
a(S'cxxflags'
p955
g2
(g3
g4
(lp956
S'-fno-exceptions'
p957
atp958
Rp959
tp960
a(S'arduino_variants_dir'
p961
S'/usr/share/arduino/hardware/arduino/variants'
p962
tp963
a(S'stty'
p964
S'/bin/stty'
p965
tp966
a(S'version.txt'
p967
S'/usr/share/arduino/lib/version.txt'
p968
tp969
a(S'arduino_core_dir'
p970
g939
tp971
a(S'boards.txt'
p972
S'/usr/share/arduino/hardware/arduino/boards.txt'
p973
tp974
a(S'avrdude.conf'
p975
S'/usr/share/arduino/hardware/tools/avrdude.conf'
p976
tp977
a(S'deps'
p978
g2
(g3
g4
(lp979
S'.build/uno/src/dependencies.d'
p980
aS'.build/uno/arduino/dependencies.d'
p981
aS'.build/uno/DHT/dependencies.d'
p982
atp983
Rp984
tp985
a.