(lp0
(S'cppflags'
p1
ccopy_reg
_reconstructor
p2
(cino.utils
SpaceList
p3
c__builtin__
list
p4
(lp5
S'-mmcu=atmega328p'
p6
aS'-DF_CPU=16000000L'
p7
aS'-DARDUINO=101'
p8
aS'-I/usr/share/arduino/hardware/arduino/cores/arduino'
p9
aS'-ffunction-sections'
p10
aS'-fdata-sections'
p11
aS'-g'
p12
aS'-Os'
p13
aS'-w'
p14
aS'-I/usr/share/arduino/hardware/arduino/variants/standard'
p15
aS'-I/usr/share/arduino/libraries/LiquidCrystal'
p16
aS'-I/usr/share/arduino/hardware/arduino/cores/arduino'
p17
atp18
Rp19
tp20
a(S'cxx'
p21
S'/usr/bin/avr-g++'
p22
tp23
a(S'arduino_libraries_dir'
p24
S'/usr/share/arduino/libraries'
p25
tp26
a(S'avrdude'
p27
S'/usr/share/arduino/hardware/tools/avrdude'
p28
tp29
a(S'ar'
p30
S'/usr/bin/avr-ar'
p31
tp32
a(S'names'
p33
(dp34
S'cpp'
p35
S'%s.cpp'
p36
sS'obj'
p37
S'%s.o'
p38
sS'lib'
p39
S'lib%s.a'
p40
sS'deps'
p41
S'%s.d'
p42
stp43
a(S'ldflags'
p44
g2
(g3
g4
(lp45
g6
aS'-Wl,-Os'
p46
aS'-Wl,--gc-sections'
p47
atp48
Rp49
tp50
a(S'arduino_lib_version'
p51
g2
(cino.environment
Version
p52
c__builtin__
tuple
p53
(I1
I0
I1
tp54
tp55
Rp56
tp57
a(S'objcopy'
p58
S'/usr/bin/avr-objcopy'
p59
tp60
a(S'board_models'
p61
cino.environment
BoardModels
p62
((lp63
(lp64
S'uno'
p65
a(dp66
S'bootloader'
p67
(dp68
S'extended_fuses'
p69
S'0x05'
p70
sS'high_fuses'
p71
S'0xde'
p72
sS'low_fuses'
p73
S'0xff'
p74
sS'lock_bits'
p75
S'0x0F'
p76
sS'file'
p77
S'optiboot_atmega328.hex'
p78
sS'path'
p79
S'optiboot'
p80
sS'unlock_bits'
p81
S'0x3F'
p82
ssS'upload'
p83
(dp84
S'protocol'
p85
S'arduino'
p86
sS'maximum_size'
p87
S'32256'
p88
sS'speed'
p89
S'115200'
p90
ssS'build'
p91
(dp92
S'core'
p93
S'arduino'
p94
sS'mcu'
p95
S'atmega328p'
p96
sS'f_cpu'
p97
S'16000000L'
p98
sS'variant'
p99
S'standard'
p100
ssS'name'
p101
S'Arduino Uno'
p102
saa(lp103
S'atmega328'
p104
a(dp105
S'bootloader'
p106
(dp107
S'extended_fuses'
p108
S'0x05'
p109
sS'high_fuses'
p110
S'0xDA'
p111
sS'low_fuses'
p112
S'0xFF'
p113
sS'lock_bits'
p114
S'0x0F'
p115
sS'file'
p116
S'ATmegaBOOT_168_atmega328.hex'
p117
sS'path'
p118
S'atmega'
p119
sS'unlock_bits'
p120
S'0x3F'
p121
ssS'upload'
p122
(dp123
S'protocol'
p124
S'arduino'
p125
sS'maximum_size'
p126
S'30720'
p127
sS'speed'
p128
S'57600'
p129
ssS'build'
p130
(dp131
S'core'
p132
S'arduino'
p133
sS'mcu'
p134
S'atmega328p'
p135
sS'f_cpu'
p136
S'16000000L'
p137
sS'variant'
p138
S'standard'
p139
ssS'name'
p140
S'Arduino Duemilanove w/ ATmega328'
p141
saa(lp142
S'diecimila'
p143
a(dp144
S'bootloader'
p145
(dp146
S'extended_fuses'
p147
S'0x00'
p148
sS'high_fuses'
p149
S'0xdd'
p150
sS'low_fuses'
p151
S'0xff'
p152
sS'lock_bits'
p153
S'0x0F'
p154
sS'file'
p155
S'ATmegaBOOT_168_diecimila.hex'
p156
sS'path'
p157
S'atmega'
p158
sS'unlock_bits'
p159
S'0x3F'
p160
ssS'upload'
p161
(dp162
S'protocol'
p163
S'arduino'
p164
sS'maximum_size'
p165
S'14336'
p166
sS'speed'
p167
S'19200'
p168
ssS'build'
p169
(dp170
S'core'
p171
S'arduino'
p172
sS'mcu'
p173
S'atmega168'
p174
sS'f_cpu'
p175
S'16000000L'
p176
sS'variant'
p177
S'standard'
p178
ssS'name'
p179
S'Arduino Diecimila or Duemilanove w/ ATmega168'
p180
saa(lp181
S'nano328'
p182
a(dp183
S'bootloader'
p184
(dp185
S'extended_fuses'
p186
S'0x05'
p187
sS'high_fuses'
p188
S'0xDA'
p189
sS'low_fuses'
p190
S'0xFF'
p191
sS'lock_bits'
p192
S'0x0F'
p193
sS'file'
p194
S'ATmegaBOOT_168_atmega328.hex'
p195
sS'path'
p196
S'atmega'
p197
sS'unlock_bits'
p198
S'0x3F'
p199
ssS'upload'
p200
(dp201
S'protocol'
p202
S'arduino'
p203
sS'maximum_size'
p204
S'30720'
p205
sS'speed'
p206
S'57600'
p207
ssS'build'
p208
(dp209
S'core'
p210
S'arduino'
p211
sS'mcu'
p212
S'atmega328p'
p213
sS'f_cpu'
p214
S'16000000L'
p215
sS'variant'
p216
S'eightanaloginputs'
p217
ssS'name'
p218
S'Arduino Nano w/ ATmega328'
p219
saa(lp220
S'nano'
p221
a(dp222
S'bootloader'
p223
(dp224
S'extended_fuses'
p225
S'0x00'
p226
sS'high_fuses'
p227
S'0xdd'
p228
sS'low_fuses'
p229
S'0xff'
p230
sS'lock_bits'
p231
S'0x0F'
p232
sS'file'
p233
S'ATmegaBOOT_168_diecimila.hex'
p234
sS'path'
p235
S'atmega'
p236
sS'unlock_bits'
p237
S'0x3F'
p238
ssS'upload'
p239
(dp240
S'protocol'
p241
S'arduino'
p242
sS'maximum_size'
p243
S'14336'
p244
sS'speed'
p245
S'19200'
p246
ssS'build'
p247
(dp248
S'core'
p249
S'arduino'
p250
sS'mcu'
p251
S'atmega168'
p252
sS'f_cpu'
p253
S'16000000L'
p254
sS'variant'
p255
S'eightanaloginputs'
p256
ssS'name'
p257
S'Arduino Nano w/ ATmega168'
p258
saa(lp259
S'mega2560'
p260
a(dp261
S'bootloader'
p262
(dp263
S'extended_fuses'
p264
S'0xFD'
p265
sS'high_fuses'
p266
S'0xD8'
p267
sS'low_fuses'
p268
S'0xFF'
p269
sS'lock_bits'
p270
S'0x0F'
p271
sS'file'
p272
S'stk500boot_v2_mega2560.hex'
p273
sS'path'
p274
S'stk500v2'
p275
sS'unlock_bits'
p276
S'0x3F'
p277
ssS'upload'
p278
(dp279
S'protocol'
p280
S'stk500v2'
p281
sS'maximum_size'
p282
S'258048'
p283
sS'speed'
p284
S'115200'
p285
ssS'build'
p286
(dp287
S'core'
p288
S'arduino'
p289
sS'mcu'
p290
S'atmega2560'
p291
sS'f_cpu'
p292
S'16000000L'
p293
sS'variant'
p294
S'mega'
p295
ssS'name'
p296
S'Arduino Mega 2560 or Mega ADK'
p297
saa(lp298
S'mega'
p299
a(dp300
S'bootloader'
p301
(dp302
S'extended_fuses'
p303
S'0xF5'
p304
sS'high_fuses'
p305
S'0xDA'
p306
sS'low_fuses'
p307
S'0xFF'
p308
sS'lock_bits'
p309
S'0x0F'
p310
sS'file'
p311
S'ATmegaBOOT_168_atmega1280.hex'
p312
sS'path'
p313
S'atmega'
p314
sS'unlock_bits'
p315
S'0x3F'
p316
ssS'upload'
p317
(dp318
S'protocol'
p319
S'arduino'
p320
sS'maximum_size'
p321
S'126976'
p322
sS'speed'
p323
S'57600'
p324
ssS'build'
p325
(dp326
S'core'
p327
S'arduino'
p328
sS'mcu'
p329
S'atmega1280'
p330
sS'f_cpu'
p331
S'16000000L'
p332
sS'variant'
p333
S'mega'
p334
ssS'name'
p335
S'Arduino Mega (ATmega1280)'
p336
saa(lp337
S'leonardo'
p338
a(dp339
S'bootloader'
p340
(dp341
S'extended_fuses'
p342
S'0xcb'
p343
sS'high_fuses'
p344
S'0xd8'
p345
sS'low_fuses'
p346
S'0xff'
p347
sS'lock_bits'
p348
S'0x2F'
p349
sS'file'
p350
S'Caterina-Leonardo.hex'
p351
sS'path'
p352
S'caterina'
p353
sS'unlock_bits'
p354
S'0x3F'
p355
ssS'upload'
p356
(dp357
S'protocol'
p358
S'avr109'
p359
sS'maximum_size'
p360
S'28672'
p361
sS'speed'
p362
S'57600'
p363
sS'disable_flushing'
p364
S'true'
p365
ssS'build'
p366
(dp367
S'core'
p368
S'arduino'
p369
sS'f_cpu'
p370
S'16000000L'
p371
sS'vid'
p372
S'0x2341'
p373
sS'pid'
p374
S'0x8036'
p375
sS'variant'
p376
S'leonardo'
p377
sS'mcu'
p378
S'atmega32u4'
p379
ssS'name'
p380
S'Arduino Leonardo'
p381
saa(lp382
S'mini328'
p383
a(dp384
S'bootloader'
p385
(dp386
S'extended_fuses'
p387
S'0x05'
p388
sS'high_fuses'
p389
S'0xd8'
p390
sS'low_fuses'
p391
S'0xff'
p392
sS'lock_bits'
p393
S'0x0F'
p394
sS'file'
p395
S'optiboot_atmega328-Mini.hex'
p396
sS'path'
p397
S'optiboot'
p398
sS'unlock_bits'
p399
S'0x3F'
p400
ssS'upload'
p401
(dp402
S'protocol'
p403
S'arduino'
p404
sS'maximum_size'
p405
S'28672'
p406
sS'speed'
p407
S'115200'
p408
ssS'build'
p409
(dp410
S'core'
p411
S'arduino'
p412
sS'mcu'
p413
S'atmega328p'
p414
sS'f_cpu'
p415
S'16000000L'
p416
sS'variant'
p417
S'eightanaloginputs'
p418
ssS'name'
p419
S'Arduino Mini w/ ATmega328'
p420
saa(lp421
S'mini'
p422
a(dp423
S'bootloader'
p424
(dp425
S'extended_fuses'
p426
S'0x00'
p427
sS'high_fuses'
p428
S'0xdd'
p429
sS'low_fuses'
p430
S'0xff'
p431
sS'lock_bits'
p432
S'0x0F'
p433
sS'file'
p434
S'ATmegaBOOT_168_ng.hex'
p435
sS'path'
p436
S'atmega'
p437
sS'unlock_bits'
p438
S'0x3F'
p439
ssS'upload'
p440
(dp441
S'protocol'
p442
S'arduino'
p443
sS'maximum_size'
p444
S'14336'
p445
sS'speed'
p446
S'19200'
p447
ssS'build'
p448
(dp449
S'core'
p450
S'arduino'
p451
sS'mcu'
p452
S'atmega168'
p453
sS'f_cpu'
p454
S'16000000L'
p455
sS'variant'
p456
S'eightanaloginputs'
p457
ssS'name'
p458
S'Arduino Mini w/ ATmega168'
p459
saa(lp460
S'ethernet'
p461
a(dp462
S'bootloader'
p463
(dp464
S'extended_fuses'
p465
S'0x05'
p466
sS'high_fuses'
p467
S'0xde'
p468
sS'low_fuses'
p469
S'0xff'
p470
sS'lock_bits'
p471
S'0x0F'
p472
sS'file'
p473
S'optiboot_atmega328.hex'
p474
sS'path'
p475
S'optiboot'
p476
sS'unlock_bits'
p477
S'0x3F'
p478
ssS'upload'
p479
(dp480
S'protocol'
p481
S'arduino'
p482
sS'maximum_size'
p483
S'32256'
p484
sS'speed'
p485
S'115200'
p486
ssS'build'
p487
(dp488
S'variant'
p489
S'standard'
p490
sS'mcu'
p491
S'atmega328p'
p492
sS'f_cpu'
p493
S'16000000L'
p494
sS'core'
p495
S'arduino'
p496
ssS'name'
p497
S'Arduino Ethernet'
p498
saa(lp499
S'fio'
p500
a(dp501
S'bootloader'
p502
(dp503
S'extended_fuses'
p504
S'0x05'
p505
sS'high_fuses'
p506
S'0xDA'
p507
sS'low_fuses'
p508
S'0xFF'
p509
sS'lock_bits'
p510
S'0x0F'
p511
sS'file'
p512
S'ATmegaBOOT_168_atmega328_pro_8MHz.hex'
p513
sS'path'
p514
S'arduino:atmega'
p515
sS'unlock_bits'
p516
S'0x3F'
p517
ssS'upload'
p518
(dp519
S'protocol'
p520
S'arduino'
p521
sS'maximum_size'
p522
S'30720'
p523
sS'speed'
p524
S'57600'
p525
ssS'build'
p526
(dp527
S'core'
p528
S'arduino'
p529
sS'mcu'
p530
S'atmega328p'
p531
sS'f_cpu'
p532
S'8000000L'
p533
sS'variant'
p534
S'eightanaloginputs'
p535
ssS'name'
p536
S'Arduino Fio'
p537
saa(lp538
S'bt328'
p539
a(dp540
S'bootloader'
p541
(dp542
S'extended_fuses'
p543
S'0x05'
p544
sS'high_fuses'
p545
S'0xd8'
p546
sS'low_fuses'
p547
S'0xff'
p548
sS'lock_bits'
p549
S'0x0F'
p550
sS'file'
p551
S'ATmegaBOOT_168_atmega328_bt.hex'
p552
sS'path'
p553
S'bt'
p554
sS'unlock_bits'
p555
S'0x3F'
p556
ssS'upload'
p557
(dp558
S'protocol'
p559
S'arduino'
p560
sS'maximum_size'
p561
S'28672'
p562
sS'speed'
p563
S'19200'
p564
sS'disable_flushing'
p565
S'true'
p566
ssS'build'
p567
(dp568
S'core'
p569
S'arduino'
p570
sS'mcu'
p571
S'atmega328p'
p572
sS'f_cpu'
p573
S'16000000L'
p574
sS'variant'
p575
S'eightanaloginputs'
p576
ssS'name'
p577
S'Arduino BT w/ ATmega328'
p578
saa(lp579
S'bt'
p580
a(dp581
S'bootloader'
p582
(dp583
S'extended_fuses'
p584
S'0x00'
p585
sS'high_fuses'
p586
S'0xdd'
p587
sS'low_fuses'
p588
S'0xff'
p589
sS'lock_bits'
p590
S'0x0F'
p591
sS'file'
p592
S'ATmegaBOOT_168.hex'
p593
sS'path'
p594
S'bt'
p595
sS'unlock_bits'
p596
S'0x3F'
p597
ssS'upload'
p598
(dp599
S'protocol'
p600
S'arduino'
p601
sS'maximum_size'
p602
S'14336'
p603
sS'speed'
p604
S'19200'
p605
sS'disable_flushing'
p606
S'true'
p607
ssS'build'
p608
(dp609
S'core'
p610
S'arduino'
p611
sS'mcu'
p612
S'atmega168'
p613
sS'f_cpu'
p614
S'16000000L'
p615
sS'variant'
p616
S'eightanaloginputs'
p617
ssS'name'
p618
S'Arduino BT w/ ATmega168'
p619
saa(lp620
S'lilypad328'
p621
a(dp622
S'bootloader'
p623
(dp624
S'extended_fuses'
p625
S'0x05'
p626
sS'high_fuses'
p627
S'0xDA'
p628
sS'low_fuses'
p629
S'0xFF'
p630
sS'lock_bits'
p631
S'0x0F'
p632
sS'file'
p633
S'ATmegaBOOT_168_atmega328_pro_8MHz.hex'
p634
sS'path'
p635
S'atmega'
p636
sS'unlock_bits'
p637
S'0x3F'
p638
ssS'upload'
p639
(dp640
S'protocol'
p641
S'arduino'
p642
sS'maximum_size'
p643
S'30720'
p644
sS'speed'
p645
S'57600'
p646
ssS'build'
p647
(dp648
S'core'
p649
S'arduino'
p650
sS'mcu'
p651
S'atmega328p'
p652
sS'f_cpu'
p653
S'8000000L'
p654
sS'variant'
p655
S'standard'
p656
ssS'name'
p657
S'LilyPad Arduino w/ ATmega328'
p658
saa(lp659
S'lilypad'
p660
a(dp661
S'bootloader'
p662
(dp663
S'extended_fuses'
p664
S'0x00'
p665
sS'high_fuses'
p666
S'0xdd'
p667
sS'low_fuses'
p668
S'0xe2'
p669
sS'lock_bits'
p670
S'0x0F'
p671
sS'file'
p672
S'LilyPadBOOT_168.hex'
p673
sS'path'
p674
S'lilypad'
p675
sS'unlock_bits'
p676
S'0x3F'
p677
ssS'upload'
p678
(dp679
S'protocol'
p680
S'arduino'
p681
sS'maximum_size'
p682
S'14336'
p683
sS'speed'
p684
S'19200'
p685
ssS'build'
p686
(dp687
S'core'
p688
S'arduino'
p689
sS'mcu'
p690
S'atmega168'
p691
sS'f_cpu'
p692
S'8000000L'
p693
sS'variant'
p694
S'standard'
p695
ssS'name'
p696
S'LilyPad Arduino w/ ATmega168'
p697
saa(lp698
S'pro5v328'
p699
a(dp700
S'bootloader'
p701
(dp702
S'extended_fuses'
p703
S'0x05'
p704
sS'high_fuses'
p705
S'0xDA'
p706
sS'low_fuses'
p707
S'0xFF'
p708
sS'lock_bits'
p709
S'0x0F'
p710
sS'file'
p711
S'ATmegaBOOT_168_atmega328.hex'
p712
sS'path'
p713
S'atmega'
p714
sS'unlock_bits'
p715
S'0x3F'
p716
ssS'upload'
p717
(dp718
S'protocol'
p719
S'arduino'
p720
sS'maximum_size'
p721
S'30720'
p722
sS'speed'
p723
S'57600'
p724
ssS'build'
p725
(dp726
S'core'
p727
S'arduino'
p728
sS'mcu'
p729
S'atmega328p'
p730
sS'f_cpu'
p731
S'16000000L'
p732
sS'variant'
p733
S'standard'
p734
ssS'name'
p735
S'Arduino Pro or Pro Mini (5V, 16 MHz) w/ ATmega328'
p736
saa(lp737
S'pro5v'
p738
a(dp739
S'bootloader'
p740
(dp741
S'extended_fuses'
p742
S'0x00'
p743
sS'high_fuses'
p744
S'0xdd'
p745
sS'low_fuses'
p746
S'0xff'
p747
sS'lock_bits'
p748
S'0x0F'
p749
sS'file'
p750
S'ATmegaBOOT_168_diecimila.hex'
p751
sS'path'
p752
S'atmega'
p753
sS'unlock_bits'
p754
S'0x3F'
p755
ssS'upload'
p756
(dp757
S'protocol'
p758
S'arduino'
p759
sS'maximum_size'
p760
S'14336'
p761
sS'speed'
p762
S'19200'
p763
ssS'build'
p764
(dp765
S'core'
p766
S'arduino'
p767
sS'mcu'
p768
S'atmega168'
p769
sS'f_cpu'
p770
S'16000000L'
p771
sS'variant'
p772
S'standard'
p773
ssS'name'
p774
S'Arduino Pro or Pro Mini (5V, 16 MHz) w/ ATmega168'
p775
saa(lp776
S'pro328'
p777
a(dp778
S'bootloader'
p779
(dp780
S'extended_fuses'
p781
S'0x05'
p782
sS'high_fuses'
p783
S'0xDA'
p784
sS'low_fuses'
p785
S'0xFF'
p786
sS'lock_bits'
p787
S'0x0F'
p788
sS'file'
p789
S'ATmegaBOOT_168_atmega328_pro_8MHz.hex'
p790
sS'path'
p791
S'atmega'
p792
sS'unlock_bits'
p793
S'0x3F'
p794
ssS'upload'
p795
(dp796
S'protocol'
p797
S'arduino'
p798
sS'maximum_size'
p799
S'30720'
p800
sS'speed'
p801
S'57600'
p802
ssS'build'
p803
(dp804
S'core'
p805
S'arduino'
p806
sS'mcu'
p807
S'atmega328p'
p808
sS'f_cpu'
p809
S'8000000L'
p810
sS'variant'
p811
S'standard'
p812
ssS'name'
p813
S'Arduino Pro or Pro Mini (3.3V, 8 MHz) w/ ATmega328'
p814
saa(lp815
S'pro'
p816
a(dp817
S'bootloader'
p818
(dp819
S'extended_fuses'
p820
S'0x00'
p821
sS'high_fuses'
p822
S'0xdd'
p823
sS'low_fuses'
p824
S'0xc6'
p825
sS'lock_bits'
p826
S'0x0F'
p827
sS'file'
p828
S'ATmegaBOOT_168_pro_8MHz.hex'
p829
sS'path'
p830
S'atmega'
p831
sS'unlock_bits'
p832
S'0x3F'
p833
ssS'upload'
p834
(dp835
S'protocol'
p836
S'arduino'
p837
sS'maximum_size'
p838
S'14336'
p839
sS'speed'
p840
S'19200'
p841
ssS'build'
p842
(dp843
S'core'
p844
S'arduino'
p845
sS'mcu'
p846
S'atmega168'
p847
sS'f_cpu'
p848
S'8000000L'
p849
sS'variant'
p850
S'standard'
p851
ssS'name'
p852
S'Arduino Pro or Pro Mini (3.3V, 8 MHz) w/ ATmega168'
p853
saa(lp854
S'atmega168'
p855
a(dp856
S'bootloader'
p857
(dp858
S'extended_fuses'
p859
S'0x00'
p860
sS'high_fuses'
p861
S'0xdd'
p862
sS'low_fuses'
p863
S'0xff'
p864
sS'lock_bits'
p865
S'0x0F'
p866
sS'file'
p867
S'ATmegaBOOT_168_ng.hex'
p868
sS'path'
p869
S'atmega'
p870
sS'unlock_bits'
p871
S'0x3F'
p872
ssS'upload'
p873
(dp874
S'protocol'
p875
S'arduino'
p876
sS'maximum_size'
p877
S'14336'
p878
sS'speed'
p879
S'19200'
p880
ssS'build'
p881
(dp882
S'core'
p883
S'arduino'
p884
sS'mcu'
p885
S'atmega168'
p886
sS'f_cpu'
p887
S'16000000L'
p888
sS'variant'
p889
S'standard'
p890
ssS'name'
p891
S'Arduino NG or older w/ ATmega168'
p892
saa(lp893
S'atmega8'
p894
a(dp895
S'bootloader'
p896
(dp897
S'high_fuses'
p898
S'0xca'
p899
sS'low_fuses'
p900
S'0xdf'
p901
sS'lock_bits'
p902
S'0x0F'
p903
sS'file'
p904
S'ATmegaBOOT.hex'
p905
sS'path'
p906
S'atmega8'
p907
sS'unlock_bits'
p908
S'0x3F'
p909
ssS'upload'
p910
(dp911
S'protocol'
p912
S'arduino'
p913
sS'maximum_size'
p914
S'7168'
p915
sS'speed'
p916
S'19200'
p917
ssS'build'
p918
(dp919
S'core'
p920
S'arduino'
p921
sS'mcu'
p922
S'atmega8'
p923
sS'f_cpu'
p924
S'16000000L'
p925
sS'variant'
p926
S'standard'
p927
ssS'name'
p928
S'Arduino NG or older w/ ATmega8'
p929
saatp930
Rp931
(dp932
S'default'
p933
S'uno'
p934
sbtp935
a(S'used_libs'
p936
(lp937
S'/usr/share/arduino/libraries/LiquidCrystal'
p938
aS'/usr/share/arduino/hardware/arduino/cores/arduino'
p939
atp940
a(S'make'
p941
S'/usr/bin/make'
p942
tp943
a(S'build_dir'
p944
S'.build/uno'
p945
tp946
a(S'cc'
p947
S'/usr/bin/avr-gcc'
p948
tp949
a(S'cflags'
p950
g2
(g3
g4
(lp951
tp952
Rp953
tp954
a(S'cxxflags'
p955
g2
(g3
g4
(lp956
S'-fno-exceptions'
p957
atp958
Rp959
tp960
a(S'arduino_variants_dir'
p961
S'/usr/share/arduino/hardware/arduino/variants'
p962
tp963
a(S'stty'
p964
S'/bin/stty'
p965
tp966
a(S'version.txt'
p967
S'/usr/share/arduino/lib/version.txt'
p968
tp969
a(S'arduino_core_dir'
p970
g939
tp971
a(S'boards.txt'
p972
S'/usr/share/arduino/hardware/arduino/boards.txt'
p973
tp974
a(S'avrdude.conf'
p975
S'/usr/share/arduino/hardware/tools/avrdude.conf'
p976
tp977
a(S'deps'
p978
g2
(g3
g4
(lp979
S'.build/uno/src/dependencies.d'
p980
aS'.build/uno/arduino/dependencies.d'
p981
aS'.build/uno/LiquidCrystal/dependencies.d'
p982
atp983
Rp984
tp985
a.