(lp0
(S'cppflags'
p1
ccopy_reg
_reconstructor
p2
(cino.utils
SpaceList
p3
c__builtin__
list
p4
(lp5
S'-mmcu=atmega328p'
p6
aS'-DF_CPU=16000000L'
p7
aS'-DARDUINO=101'
p8
aS'-I/usr/share/arduino/hardware/arduino/cores/arduino'
p9
aS'-ffunction-sections'
p10
aS'-fdata-sections'
p11
aS'-g'
p12
aS'-Os'
p13
aS'-w'
p14
aS'-I/usr/share/arduino/hardware/arduino/variants/standard'
p15
aS'-I/usr/share/arduino/libraries/LiquidCrystal'
p16
aS'-I/usr/share/arduino/hardware/arduino/cores/arduino'
p17
atp18
Rp19
tp20
a(S'cxx'
p21
S'/usr/bin/avr-g++'
p22
tp23
a(S'build_dir'
p24
S'.build/uno'
p25
tp26
a(S'avrdude'
p27
S'/usr/share/arduino/hardware/tools/avrdude'
p28
tp29
a(S'ar'
p30
S'/usr/bin/avr-ar'
p31
tp32
a(S'names'
p33
(dp34
S'cpp'
p35
S'%s.cpp'
p36
sS'obj'
p37
S'%s.o'
p38
sS'deps'
p39
S'%s.d'
p40
sS'lib'
p41
S'lib%s.a'
p42
stp43
a(S'ldflags'
p44
g2
(g3
g4
(lp45
g6
aS'-Wl,-Os'
p46
aS'-Wl,--gc-sections'
p47
atp48
Rp49
tp50
a(S'arduino_lib_version'
p51
g2
(cino.environment
Version
p52
c__builtin__
tuple
p53
(I1
I0
I1
tp54
tp55
Rp56
tp57
a(S'objcopy'
p58
S'/usr/bin/avr-objcopy'
p59
tp60
a(S'board_models'
p61
cino.environment
BoardModels
p62
((lp63
(lp64
S'uno'
p65
a(dp66
S'bootloader'
p67
(dp68
S'extended_fuses'
p69
S'0x05'
p70
sS'high_fuses'
p71
S'0xde'
p72
sS'low_fuses'
p73
S'0xff'
p74
sS'lock_bits'
p75
S'0x0F'
p76
sS'file'
p77
S'optiboot_atmega328.hex'
p78
sS'path'
p79
S'optiboot'
p80
sS'unlock_bits'
p81
S'0x3F'
p82
ssS'upload'
p83
(dp84
S'speed'
p85
S'115200'
p86
sS'maximum_size'
p87
S'32256'
p88
sS'protocol'
p89
S'arduino'
p90
ssS'name'
p91
S'Arduino Uno'
p92
sS'build'
p93
(dp94
S'core'
p95
S'arduino'
p96
sS'mcu'
p97
S'atmega328p'
p98
sS'f_cpu'
p99
S'16000000L'
p100
sS'variant'
p101
S'standard'
p102
ssaa(lp103
S'atmega328'
p104
a(dp105
S'bootloader'
p106
(dp107
S'extended_fuses'
p108
S'0x05'
p109
sS'high_fuses'
p110
S'0xDA'
p111
sS'low_fuses'
p112
S'0xFF'
p113
sS'lock_bits'
p114
S'0x0F'
p115
sS'file'
p116
S'ATmegaBOOT_168_atmega328.hex'
p117
sS'path'
p118
S'atmega'
p119
sS'unlock_bits'
p120
S'0x3F'
p121
ssS'upload'
p122
(dp123
S'speed'
p124
S'57600'
p125
sS'maximum_size'
p126
S'30720'
p127
sS'protocol'
p128
S'arduino'
p129
ssS'name'
p130
S'Arduino Duemilanove w/ ATmega328'
p131
sS'build'
p132
(dp133
S'core'
p134
S'arduino'
p135
sS'mcu'
p136
S'atmega328p'
p137
sS'f_cpu'
p138
S'16000000L'
p139
sS'variant'
p140
S'standard'
p141
ssaa(lp142
S'diecimila'
p143
a(dp144
S'bootloader'
p145
(dp146
S'extended_fuses'
p147
S'0x00'
p148
sS'high_fuses'
p149
S'0xdd'
p150
sS'low_fuses'
p151
S'0xff'
p152
sS'lock_bits'
p153
S'0x0F'
p154
sS'file'
p155
S'ATmegaBOOT_168_diecimila.hex'
p156
sS'path'
p157
S'atmega'
p158
sS'unlock_bits'
p159
S'0x3F'
p160
ssS'upload'
p161
(dp162
S'speed'
p163
S'19200'
p164
sS'maximum_size'
p165
S'14336'
p166
sS'protocol'
p167
S'arduino'
p168
ssS'name'
p169
S'Arduino Diecimila or Duemilanove w/ ATmega168'
p170
sS'build'
p171
(dp172
S'core'
p173
S'arduino'
p174
sS'mcu'
p175
S'atmega168'
p176
sS'f_cpu'
p177
S'16000000L'
p178
sS'variant'
p179
S'standard'
p180
ssaa(lp181
S'nano328'
p182
a(dp183
S'bootloader'
p184
(dp185
S'extended_fuses'
p186
S'0x05'
p187
sS'high_fuses'
p188
S'0xDA'
p189
sS'low_fuses'
p190
S'0xFF'
p191
sS'lock_bits'
p192
S'0x0F'
p193
sS'file'
p194
S'ATmegaBOOT_168_atmega328.hex'
p195
sS'path'
p196
S'atmega'
p197
sS'unlock_bits'
p198
S'0x3F'
p199
ssS'upload'
p200
(dp201
S'speed'
p202
S'57600'
p203
sS'maximum_size'
p204
S'30720'
p205
sS'protocol'
p206
S'arduino'
p207
ssS'name'
p208
S'Arduino Nano w/ ATmega328'
p209
sS'build'
p210
(dp211
S'core'
p212
S'arduino'
p213
sS'mcu'
p214
S'atmega328p'
p215
sS'f_cpu'
p216
S'16000000L'
p217
sS'variant'
p218
S'eightanaloginputs'
p219
ssaa(lp220
S'nano'
p221
a(dp222
S'bootloader'
p223
(dp224
S'extended_fuses'
p225
S'0x00'
p226
sS'high_fuses'
p227
S'0xdd'
p228
sS'low_fuses'
p229
S'0xff'
p230
sS'lock_bits'
p231
S'0x0F'
p232
sS'file'
p233
S'ATmegaBOOT_168_diecimila.hex'
p234
sS'path'
p235
S'atmega'
p236
sS'unlock_bits'
p237
S'0x3F'
p238
ssS'upload'
p239
(dp240
S'speed'
p241
S'19200'
p242
sS'maximum_size'
p243
S'14336'
p244
sS'protocol'
p245
S'arduino'
p246
ssS'name'
p247
S'Arduino Nano w/ ATmega168'
p248
sS'build'
p249
(dp250
S'core'
p251
S'arduino'
p252
sS'mcu'
p253
S'atmega168'
p254
sS'f_cpu'
p255
S'16000000L'
p256
sS'variant'
p257
S'eightanaloginputs'
p258
ssaa(lp259
S'mega2560'
p260
a(dp261
S'bootloader'
p262
(dp263
S'extended_fuses'
p264
S'0xFD'
p265
sS'high_fuses'
p266
S'0xD8'
p267
sS'low_fuses'
p268
S'0xFF'
p269
sS'lock_bits'
p270
S'0x0F'
p271
sS'file'
p272
S'stk500boot_v2_mega2560.hex'
p273
sS'path'
p274
S'stk500v2'
p275
sS'unlock_bits'
p276
S'0x3F'
p277
ssS'upload'
p278
(dp279
S'speed'
p280
S'115200'
p281
sS'maximum_size'
p282
S'258048'
p283
sS'protocol'
p284
S'stk500v2'
p285
ssS'name'
p286
S'Arduino Mega 2560 or Mega ADK'
p287
sS'build'
p288
(dp289
S'core'
p290
S'arduino'
p291
sS'mcu'
p292
S'atmega2560'
p293
sS'f_cpu'
p294
S'16000000L'
p295
sS'variant'
p296
S'mega'
p297
ssaa(lp298
S'mega'
p299
a(dp300
S'bootloader'
p301
(dp302
S'extended_fuses'
p303
S'0xF5'
p304
sS'high_fuses'
p305
S'0xDA'
p306
sS'low_fuses'
p307
S'0xFF'
p308
sS'lock_bits'
p309
S'0x0F'
p310
sS'file'
p311
S'ATmegaBOOT_168_atmega1280.hex'
p312
sS'path'
p313
S'atmega'
p314
sS'unlock_bits'
p315
S'0x3F'
p316
ssS'upload'
p317
(dp318
S'speed'
p319
S'57600'
p320
sS'maximum_size'
p321
S'126976'
p322
sS'protocol'
p323
S'arduino'
p324
ssS'name'
p325
S'Arduino Mega (ATmega1280)'
p326
sS'build'
p327
(dp328
S'core'
p329
S'arduino'
p330
sS'mcu'
p331
S'atmega1280'
p332
sS'f_cpu'
p333
S'16000000L'
p334
sS'variant'
p335
S'mega'
p336
ssaa(lp337
S'leonardo'
p338
a(dp339
S'bootloader'
p340
(dp341
S'extended_fuses'
p342
S'0xcb'
p343
sS'high_fuses'
p344
S'0xd8'
p345
sS'low_fuses'
p346
S'0xff'
p347
sS'lock_bits'
p348
S'0x2F'
p349
sS'file'
p350
S'Caterina-Leonardo.hex'
p351
sS'path'
p352
S'caterina'
p353
sS'unlock_bits'
p354
S'0x3F'
p355
ssS'upload'
p356
(dp357
S'speed'
p358
S'57600'
p359
sS'maximum_size'
p360
S'28672'
p361
sS'protocol'
p362
S'avr109'
p363
sS'disable_flushing'
p364
S'true'
p365
ssS'name'
p366
S'Arduino Leonardo'
p367
sS'build'
p368
(dp369
S'core'
p370
S'arduino'
p371
sS'f_cpu'
p372
S'16000000L'
p373
sS'vid'
p374
S'0x2341'
p375
sS'pid'
p376
S'0x8036'
p377
sS'variant'
p378
S'leonardo'
p379
sS'mcu'
p380
S'atmega32u4'
p381
ssaa(lp382
S'mini328'
p383
a(dp384
S'bootloader'
p385
(dp386
S'extended_fuses'
p387
S'0x05'
p388
sS'high_fuses'
p389
S'0xd8'
p390
sS'low_fuses'
p391
S'0xff'
p392
sS'lock_bits'
p393
S'0x0F'
p394
sS'file'
p395
S'optiboot_atmega328-Mini.hex'
p396
sS'path'
p397
S'optiboot'
p398
sS'unlock_bits'
p399
S'0x3F'
p400
ssS'upload'
p401
(dp402
S'speed'
p403
S'115200'
p404
sS'maximum_size'
p405
S'28672'
p406
sS'protocol'
p407
S'arduino'
p408
ssS'name'
p409
S'Arduino Mini w/ ATmega328'
p410
sS'build'
p411
(dp412
S'core'
p413
S'arduino'
p414
sS'mcu'
p415
S'atmega328p'
p416
sS'f_cpu'
p417
S'16000000L'
p418
sS'variant'
p419
S'eightanaloginputs'
p420
ssaa(lp421
S'mini'
p422
a(dp423
S'bootloader'
p424
(dp425
S'extended_fuses'
p426
S'0x00'
p427
sS'high_fuses'
p428
S'0xdd'
p429
sS'low_fuses'
p430
S'0xff'
p431
sS'lock_bits'
p432
S'0x0F'
p433
sS'file'
p434
S'ATmegaBOOT_168_ng.hex'
p435
sS'path'
p436
S'atmega'
p437
sS'unlock_bits'
p438
S'0x3F'
p439
ssS'upload'
p440
(dp441
S'speed'
p442
S'19200'
p443
sS'maximum_size'
p444
S'14336'
p445
sS'protocol'
p446
S'arduino'
p447
ssS'name'
p448
S'Arduino Mini w/ ATmega168'
p449
sS'build'
p450
(dp451
S'core'
p452
S'arduino'
p453
sS'mcu'
p454
S'atmega168'
p455
sS'f_cpu'
p456
S'16000000L'
p457
sS'variant'
p458
S'eightanaloginputs'
p459
ssaa(lp460
S'ethernet'
p461
a(dp462
S'bootloader'
p463
(dp464
S'extended_fuses'
p465
S'0x05'
p466
sS'high_fuses'
p467
S'0xde'
p468
sS'low_fuses'
p469
S'0xff'
p470
sS'lock_bits'
p471
S'0x0F'
p472
sS'file'
p473
S'optiboot_atmega328.hex'
p474
sS'path'
p475
S'optiboot'
p476
sS'unlock_bits'
p477
S'0x3F'
p478
ssS'upload'
p479
(dp480
S'speed'
p481
S'115200'
p482
sS'maximum_size'
p483
S'32256'
p484
sS'protocol'
p485
S'arduino'
p486
ssS'name'
p487
S'Arduino Ethernet'
p488
sS'build'
p489
(dp490
S'f_cpu'
p491
S'16000000L'
p492
sS'mcu'
p493
S'atmega328p'
p494
sS'variant'
p495
S'standard'
p496
sS'core'
p497
S'arduino'
p498
ssaa(lp499
S'fio'
p500
a(dp501
S'bootloader'
p502
(dp503
S'extended_fuses'
p504
S'0x05'
p505
sS'high_fuses'
p506
S'0xDA'
p507
sS'low_fuses'
p508
S'0xFF'
p509
sS'lock_bits'
p510
S'0x0F'
p511
sS'file'
p512
S'ATmegaBOOT_168_atmega328_pro_8MHz.hex'
p513
sS'path'
p514
S'arduino:atmega'
p515
sS'unlock_bits'
p516
S'0x3F'
p517
ssS'upload'
p518
(dp519
S'speed'
p520
S'57600'
p521
sS'maximum_size'
p522
S'30720'
p523
sS'protocol'
p524
S'arduino'
p525
ssS'name'
p526
S'Arduino Fio'
p527
sS'build'
p528
(dp529
S'core'
p530
S'arduino'
p531
sS'mcu'
p532
S'atmega328p'
p533
sS'f_cpu'
p534
S'8000000L'
p535
sS'variant'
p536
S'eightanaloginputs'
p537
ssaa(lp538
S'bt328'
p539
a(dp540
S'bootloader'
p541
(dp542
S'extended_fuses'
p543
S'0x05'
p544
sS'high_fuses'
p545
S'0xd8'
p546
sS'low_fuses'
p547
S'0xff'
p548
sS'lock_bits'
p549
S'0x0F'
p550
sS'file'
p551
S'ATmegaBOOT_168_atmega328_bt.hex'
p552
sS'path'
p553
S'bt'
p554
sS'unlock_bits'
p555
S'0x3F'
p556
ssS'upload'
p557
(dp558
S'speed'
p559
S'19200'
p560
sS'maximum_size'
p561
S'28672'
p562
sS'protocol'
p563
S'arduino'
p564
sS'disable_flushing'
p565
S'true'
p566
ssS'name'
p567
S'Arduino BT w/ ATmega328'
p568
sS'build'
p569
(dp570
S'core'
p571
S'arduino'
p572
sS'mcu'
p573
S'atmega328p'
p574
sS'f_cpu'
p575
S'16000000L'
p576
sS'variant'
p577
S'eightanaloginputs'
p578
ssaa(lp579
S'bt'
p580
a(dp581
S'bootloader'
p582
(dp583
S'extended_fuses'
p584
S'0x00'
p585
sS'high_fuses'
p586
S'0xdd'
p587
sS'low_fuses'
p588
S'0xff'
p589
sS'lock_bits'
p590
S'0x0F'
p591
sS'file'
p592
S'ATmegaBOOT_168.hex'
p593
sS'path'
p594
S'bt'
p595
sS'unlock_bits'
p596
S'0x3F'
p597
ssS'upload'
p598
(dp599
S'speed'
p600
S'19200'
p601
sS'maximum_size'
p602
S'14336'
p603
sS'protocol'
p604
S'arduino'
p605
sS'disable_flushing'
p606
S'true'
p607
ssS'name'
p608
S'Arduino BT w/ ATmega168'
p609
sS'build'
p610
(dp611
S'core'
p612
S'arduino'
p613
sS'mcu'
p614
S'atmega168'
p615
sS'f_cpu'
p616
S'16000000L'
p617
sS'variant'
p618
S'eightanaloginputs'
p619
ssaa(lp620
S'lilypad328'
p621
a(dp622
S'bootloader'
p623
(dp624
S'extended_fuses'
p625
S'0x05'
p626
sS'high_fuses'
p627
S'0xDA'
p628
sS'low_fuses'
p629
S'0xFF'
p630
sS'lock_bits'
p631
S'0x0F'
p632
sS'file'
p633
S'ATmegaBOOT_168_atmega328_pro_8MHz.hex'
p634
sS'path'
p635
S'atmega'
p636
sS'unlock_bits'
p637
S'0x3F'
p638
ssS'upload'
p639
(dp640
S'speed'
p641
S'57600'
p642
sS'maximum_size'
p643
S'30720'
p644
sS'protocol'
p645
S'arduino'
p646
ssS'name'
p647
S'LilyPad Arduino w/ ATmega328'
p648
sS'build'
p649
(dp650
S'core'
p651
S'arduino'
p652
sS'mcu'
p653
S'atmega328p'
p654
sS'f_cpu'
p655
S'8000000L'
p656
sS'variant'
p657
S'standard'
p658
ssaa(lp659
S'lilypad'
p660
a(dp661
S'bootloader'
p662
(dp663
S'extended_fuses'
p664
S'0x00'
p665
sS'high_fuses'
p666
S'0xdd'
p667
sS'low_fuses'
p668
S'0xe2'
p669
sS'lock_bits'
p670
S'0x0F'
p671
sS'file'
p672
S'LilyPadBOOT_168.hex'
p673
sS'path'
p674
S'lilypad'
p675
sS'unlock_bits'
p676
S'0x3F'
p677
ssS'upload'
p678
(dp679
S'speed'
p680
S'19200'
p681
sS'maximum_size'
p682
S'14336'
p683
sS'protocol'
p684
S'arduino'
p685
ssS'name'
p686
S'LilyPad Arduino w/ ATmega168'
p687
sS'build'
p688
(dp689
S'core'
p690
S'arduino'
p691
sS'mcu'
p692
S'atmega168'
p693
sS'f_cpu'
p694
S'8000000L'
p695
sS'variant'
p696
S'standard'
p697
ssaa(lp698
S'pro5v328'
p699
a(dp700
S'bootloader'
p701
(dp702
S'extended_fuses'
p703
S'0x05'
p704
sS'high_fuses'
p705
S'0xDA'
p706
sS'low_fuses'
p707
S'0xFF'
p708
sS'lock_bits'
p709
S'0x0F'
p710
sS'file'
p711
S'ATmegaBOOT_168_atmega328.hex'
p712
sS'path'
p713
S'atmega'
p714
sS'unlock_bits'
p715
S'0x3F'
p716
ssS'upload'
p717
(dp718
S'speed'
p719
S'57600'
p720
sS'maximum_size'
p721
S'30720'
p722
sS'protocol'
p723
S'arduino'
p724
ssS'name'
p725
S'Arduino Pro or Pro Mini (5V, 16 MHz) w/ ATmega328'
p726
sS'build'
p727
(dp728
S'core'
p729
S'arduino'
p730
sS'mcu'
p731
S'atmega328p'
p732
sS'f_cpu'
p733
S'16000000L'
p734
sS'variant'
p735
S'standard'
p736
ssaa(lp737
S'pro5v'
p738
a(dp739
S'bootloader'
p740
(dp741
S'extended_fuses'
p742
S'0x00'
p743
sS'high_fuses'
p744
S'0xdd'
p745
sS'low_fuses'
p746
S'0xff'
p747
sS'lock_bits'
p748
S'0x0F'
p749
sS'file'
p750
S'ATmegaBOOT_168_diecimila.hex'
p751
sS'path'
p752
S'atmega'
p753
sS'unlock_bits'
p754
S'0x3F'
p755
ssS'upload'
p756
(dp757
S'speed'
p758
S'19200'
p759
sS'maximum_size'
p760
S'14336'
p761
sS'protocol'
p762
S'arduino'
p763
ssS'name'
p764
S'Arduino Pro or Pro Mini (5V, 16 MHz) w/ ATmega168'
p765
sS'build'
p766
(dp767
S'core'
p768
S'arduino'
p769
sS'mcu'
p770
S'atmega168'
p771
sS'f_cpu'
p772
S'16000000L'
p773
sS'variant'
p774
S'standard'
p775
ssaa(lp776
S'pro328'
p777
a(dp778
S'bootloader'
p779
(dp780
S'extended_fuses'
p781
S'0x05'
p782
sS'high_fuses'
p783
S'0xDA'
p784
sS'low_fuses'
p785
S'0xFF'
p786
sS'lock_bits'
p787
S'0x0F'
p788
sS'file'
p789
S'ATmegaBOOT_168_atmega328_pro_8MHz.hex'
p790
sS'path'
p791
S'atmega'
p792
sS'unlock_bits'
p793
S'0x3F'
p794
ssS'upload'
p795
(dp796
S'speed'
p797
S'57600'
p798
sS'maximum_size'
p799
S'30720'
p800
sS'protocol'
p801
S'arduino'
p802
ssS'name'
p803
S'Arduino Pro or Pro Mini (3.3V, 8 MHz) w/ ATmega328'
p804
sS'build'
p805
(dp806
S'core'
p807
S'arduino'
p808
sS'mcu'
p809
S'atmega328p'
p810
sS'f_cpu'
p811
S'8000000L'
p812
sS'variant'
p813
S'standard'
p814
ssaa(lp815
S'pro'
p816
a(dp817
S'bootloader'
p818
(dp819
S'extended_fuses'
p820
S'0x00'
p821
sS'high_fuses'
p822
S'0xdd'
p823
sS'low_fuses'
p824
S'0xc6'
p825
sS'lock_bits'
p826
S'0x0F'
p827
sS'file'
p828
S'ATmegaBOOT_168_pro_8MHz.hex'
p829
sS'path'
p830
S'atmega'
p831
sS'unlock_bits'
p832
S'0x3F'
p833
ssS'upload'
p834
(dp835
S'speed'
p836
S'19200'
p837
sS'maximum_size'
p838
S'14336'
p839
sS'protocol'
p840
S'arduino'
p841
ssS'name'
p842
S'Arduino Pro or Pro Mini (3.3V, 8 MHz) w/ ATmega168'
p843
sS'build'
p844
(dp845
S'core'
p846
S'arduino'
p847
sS'mcu'
p848
S'atmega168'
p849
sS'f_cpu'
p850
S'8000000L'
p851
sS'variant'
p852
S'standard'
p853
ssaa(lp854
S'atmega168'
p855
a(dp856
S'bootloader'
p857
(dp858
S'extended_fuses'
p859
S'0x00'
p860
sS'high_fuses'
p861
S'0xdd'
p862
sS'low_fuses'
p863
S'0xff'
p864
sS'lock_bits'
p865
S'0x0F'
p866
sS'file'
p867
S'ATmegaBOOT_168_ng.hex'
p868
sS'path'
p869
S'atmega'
p870
sS'unlock_bits'
p871
S'0x3F'
p872
ssS'upload'
p873
(dp874
S'speed'
p875
S'19200'
p876
sS'maximum_size'
p877
S'14336'
p878
sS'protocol'
p879
S'arduino'
p880
ssS'name'
p881
S'Arduino NG or older w/ ATmega168'
p882
sS'build'
p883
(dp884
S'core'
p885
S'arduino'
p886
sS'mcu'
p887
S'atmega168'
p888
sS'f_cpu'
p889
S'16000000L'
p890
sS'variant'
p891
S'standard'
p892
ssaa(lp893
S'atmega8'
p894
a(dp895
S'bootloader'
p896
(dp897
S'high_fuses'
p898
S'0xca'
p899
sS'low_fuses'
p900
S'0xdf'
p901
sS'lock_bits'
p902
S'0x0F'
p903
sS'file'
p904
S'ATmegaBOOT.hex'
p905
sS'path'
p906
S'atmega8'
p907
sS'unlock_bits'
p908
S'0x3F'
p909
ssS'upload'
p910
(dp911
S'speed'
p912
S'19200'
p913
sS'maximum_size'
p914
S'7168'
p915
sS'protocol'
p916
S'arduino'
p917
ssS'name'
p918
S'Arduino NG or older w/ ATmega8'
p919
sS'build'
p920
(dp921
S'core'
p922
S'arduino'
p923
sS'mcu'
p924
S'atmega8'
p925
sS'f_cpu'
p926
S'16000000L'
p927
sS'variant'
p928
S'standard'
p929
ssaatp930
Rp931
(dp932
S'default'
p933
S'uno'
p934
sbtp935
a(S'used_libs'
p936
(lp937
S'/usr/share/arduino/libraries/LiquidCrystal'
p938
aS'/usr/share/arduino/hardware/arduino/cores/arduino'
p939
atp940
a(S'make'
p941
S'/usr/bin/make'
p942
tp943
a(S'arduino_libraries_dir'
p944
S'/usr/share/arduino/libraries'
p945
tp946
a(S'cc'
p947
S'/usr/bin/avr-gcc'
p948
tp949
a(S'cflags'
p950
g2
(g3
g4
(lp951
tp952
Rp953
tp954
a(S'cxxflags'
p955
g2
(g3
g4
(lp956
S'-fno-exceptions'
p957
atp958
Rp959
tp960
a(S'arduino_variants_dir'
p961
S'/usr/share/arduino/hardware/arduino/variants'
p962
tp963
a(S'stty'
p964
S'/bin/stty'
p965
tp966
a(S'version.txt'
p967
S'/usr/share/arduino/lib/version.txt'
p968
tp969
a(S'arduino_core_dir'
p970
g939
tp971
a(S'boards.txt'
p972
S'/usr/share/arduino/hardware/arduino/boards.txt'
p973
tp974
a(S'avrdude.conf'
p975
S'/usr/share/arduino/hardware/tools/avrdude.conf'
p976
tp977
a(S'deps'
p978
g2
(g3
g4
(lp979
S'.build/uno/src/dependencies.d'
p980
aS'.build/uno/arduino/dependencies.d'
p981
aS'.build/uno/LiquidCrystal/dependencies.d'
p982
atp983
Rp984
tp985
a.